

Microchip Technology PIC LITE Macro Assembler V2.00 build -1524193055 
                                                                                               Thu May 30 15:36:54 2019

Microchip Technology Omniscient Code Generator v2.00 (Free mode) build 20180527130849
     1  0000                     
      + 0000                     
     2                           ; Version 2.00
     3                           ; Generated 27/05/2018 GMT
     4                           
     5                           ; 
     6                           ; Copyright © 2018, Microchip Technology Inc. and its subsidiaries ("Microchip")
     7                           ; All rights reserved.
     8                           ; 
     9                           ; This software is developed by Microchip Technology Inc. and its subsidiaries ("Microch
                                 ip").
    10                           ; 
    11                           ; Redistribution and use in source and binary forms, with or without modification, are
    12                           ; permitted provided that the following conditions are met:
    13                           ; 
    14                           ;     1. Redistributions of source code must retain the above copyright notice, this lis
                                 t of
    15                           ;        conditions and the following disclaimer.
    16                           ; 
    17                           ;     2. Redistributions in binary form must reproduce the above copyright notice, this 
                                 list
    18                           ;        of conditions and the following disclaimer in the documentation and/or other
    19                           ;        materials provided with the distribution.
    20                           ; 
    21                           ;     3. Microchip's name may not be used to endorse or promote products derived from th
                                 is
    22                           ;        software without specific prior written permission.
    23                           ; 
    24                           ; THIS SOFTWARE IS PROVIDED BY MICROCHIP "AS IS" AND ANY EXPRESS OR IMPLIED WARRANTIES,

    25                           ; INCLUDING, BUT NOT LIMITED TO, THE IMPLIED WARRANTIES OF MERCHANTABILITY AND FITNESS F
                                 OR
    26                           ; PURPOSE ARE DISCLAIMED.  IN NO EVENT SHALL MICROCHIP BE LIABLE FOR ANY DIRECT, INDIREC
                                 T,
    27                           ; INCIDENTAL, SPECIAL, EXEMPLARY, OR CONSEQUENTIAL DAMAGES (INCLUDING BUT NOT LIMITED TO
                                 
    28                           ; PROCUREMENT OF SUBSTITUTE GOODS OR SERVICES; LOSS OF USE, DATA OR PROFITS; OR BUSINESS
                                 
    29                           ; INTERRUPTION) HOWSOEVER CAUSED AND ON ANY THEORY OF LIABILITY, WHETHER IN CONTRACT, ST
                                 RICT
    30                           ; LIABILITY, OR TORT (INCLUDING NEGLIGENCE OR OTHERWISE) ARISING IN ANY WAY OUT OF THE U
                                 SE OF
    31                           ; THIS SOFTWARE, EVEN IF ADVISED OF THE POSSIBILITY OF SUCH DAMAGE.
    32                           ; 
    33                           
    34                           
    35                           ; 
    36                           ; Code-generator required, MCP19215 Definitions
    37                           ; 
    38  0004                     fsr0 equ 04h
    39  0004                     indf equ 00h
    40  0000                     indf0 equ 00h
    41  0000                     pc equ 02h
    42  0002                     pcl equ 02h
    43  0002                     pclath equ 0Ah
    44  000A                     status equ 03h
    45  0003                     
     2                           opt pagewidth 120
     3  0000                     byte0	macro	val
     4                           	(getbyte(val,0))
     5                           endm
     6  0000                     byte1	macro	val
     7                           	(getbyte(val,1))
     8                           endm
     9  0000                     byte2	macro	val
    10                           	(getbyte(val,2))
    11                           endm
    12  0000                     byte3	macro	val
    13                           	(getbyte(val,3))
    14                           endm
    15  0000                     byte4	macro	val
    16                           	(getbyte(val,4))
    17                           endm
    18  0000                     byte5	macro	val
    19                           	(getbyte(val,5))
    20                           endm
    21  0000                     byte6	macro	val
    22                           	(getbyte(val,6))
    23                           endm
    24  0000                     byte7	macro	val
    25                           	(getbyte(val,7))
    26                           endm
    27  0000                     getword	macro	val,pos
    28                           	(((val) >> (8 * pos)) and 0xffff)
    29                           endm
    30  0000                     word0	macro	val
    31                           	(getword(val,0))
    32                           endm
    33  0000                     word1	macro	val
    34                           	(getword(val,2))
    35                           endm
    36  0000                     word2	macro	val
    37                           	(getword(val,4))
    38                           endm
    39  0000                     word3	macro	val
    40                           	(getword(val,6))
    41                           endm
    42  0000                     gettword	macro	val,pos
    43                           	(((val) >> (8 * pos)) and 0xffffff)
    44                           endm
    45  0000                     tword0	macro	val
    46                           	(gettword(val,0))
    47                           endm
    48  0000                     tword1	macro	val
    49                           	(gettword(val,3))
    50                           endm
    51  0000                     tword2	macro	val
    52                           	(gettword(val,6))
    53                           endm
    54  0000                     getdword	macro	val,pos
    55                           	(((val) >> (8 * pos)) and 0xffffffff)
    56                           endm
    57  0000                     dword0	macro	val
    58                           	(getdword(val,0))
    59                           endm
    60  0000                     dword1	macro	val
    61                           	(getdword(val,4))
    62                           endm
    63  0000                     clrc	macro
    64                           	bcf	3,0
    65                           	endm
    66  0000                     clrz	macro
    67                           	bcf	3,2
    68                           	endm
    69  0000                     setc	macro
    70                           	bsf	3,0
    71                           	endm
    72  0000                     setz	macro
    73                           	bsf	3,2
    74                           	endm
    75  0000                     skipc	macro
    76                           	btfss	3,0
    77                           	endm
    78  0000                     skipz	macro
    79                           	btfss	3,2
    80                           	endm
    81  0000                     skipnc	macro
    82                           	btfsc	3,0
    83                           	endm
    84  0000                     skipnz	macro
    85                           	btfsc	3,2
    86                           	endm
    87  0000                     # 54 "C:\Program Files (x86)\Microchip\xc8\v2.00\pic\include\mcp19215.h"
    88                           INDF equ 00h ;# 
    89  0000                     # 61 "C:\Program Files (x86)\Microchip\xc8\v2.00\pic\include\mcp19215.h"
    90                           TMR0 equ 01h ;# 
    91  0001                     # 68 "C:\Program Files (x86)\Microchip\xc8\v2.00\pic\include\mcp19215.h"
    92                           PCL equ 02h ;# 
    93  0002                     # 75 "C:\Program Files (x86)\Microchip\xc8\v2.00\pic\include\mcp19215.h"
    94                           STATUS equ 03h ;# 
    95  0003                     # 161 "C:\Program Files (x86)\Microchip\xc8\v2.00\pic\include\mcp19215.h"
    96                           FSR equ 04h ;# 
    97  0004                     # 168 "C:\Program Files (x86)\Microchip\xc8\v2.00\pic\include\mcp19215.h"
    98                           PORTGPA equ 05h ;# 
    99  0005                     # 173 "C:\Program Files (x86)\Microchip\xc8\v2.00\pic\include\mcp19215.h"
   100                           PORTA equ 05h ;# 
   101  0005                     # 460 "C:\Program Files (x86)\Microchip\xc8\v2.00\pic\include\mcp19215.h"
   102                           PORTGPB equ 06h ;# 
   103  0006                     # 465 "C:\Program Files (x86)\Microchip\xc8\v2.00\pic\include\mcp19215.h"
   104                           PORTB equ 06h ;# 
   105  0006                     # 638 "C:\Program Files (x86)\Microchip\xc8\v2.00\pic\include\mcp19215.h"
   106                           PIR1 equ 07h ;# 
   107  0007                     # 700 "C:\Program Files (x86)\Microchip\xc8\v2.00\pic\include\mcp19215.h"
   108                           PIR2 equ 08h ;# 
   109  0008                     # 752 "C:\Program Files (x86)\Microchip\xc8\v2.00\pic\include\mcp19215.h"
   110                           PIR3 equ 09h ;# 
   111  0009                     # 778 "C:\Program Files (x86)\Microchip\xc8\v2.00\pic\include\mcp19215.h"
   112                           PCLATH equ 0Ah ;# 
   113  000A                     # 785 "C:\Program Files (x86)\Microchip\xc8\v2.00\pic\include\mcp19215.h"
   114                           INTCON equ 0Bh ;# 
   115  000B                     # 847 "C:\Program Files (x86)\Microchip\xc8\v2.00\pic\include\mcp19215.h"
   116                           TMR1 equ 0Ch ;# 
   117  000C                     # 854 "C:\Program Files (x86)\Microchip\xc8\v2.00\pic\include\mcp19215.h"
   118                           TMR1L equ 0Ch ;# 
   119  000C                     # 861 "C:\Program Files (x86)\Microchip\xc8\v2.00\pic\include\mcp19215.h"
   120                           TMR1H equ 0Dh ;# 
   121  000D                     # 868 "C:\Program Files (x86)\Microchip\xc8\v2.00\pic\include\mcp19215.h"
   122                           T1CON equ 0Eh ;# 
   123  000E                     # 916 "C:\Program Files (x86)\Microchip\xc8\v2.00\pic\include\mcp19215.h"
   124                           TMR2 equ 0Fh ;# 
   125  000F                     # 923 "C:\Program Files (x86)\Microchip\xc8\v2.00\pic\include\mcp19215.h"
   126                           T2CON equ 010h ;# 
   127  0010                     # 949 "C:\Program Files (x86)\Microchip\xc8\v2.00\pic\include\mcp19215.h"
   128                           PR2 equ 011h ;# 
   129  0011                     # 969 "C:\Program Files (x86)\Microchip\xc8\v2.00\pic\include\mcp19215.h"
   130                           PCON equ 012h ;# 
   131  0012                     # 976 "C:\Program Files (x86)\Microchip\xc8\v2.00\pic\include\mcp19215.h"
   132                           PWM2PHL equ 013h ;# 
   133  0013                     # 996 "C:\Program Files (x86)\Microchip\xc8\v2.00\pic\include\mcp19215.h"
   134                           PWM2PHH equ 014h ;# 
   135  0014                     # 1016 "C:\Program Files (x86)\Microchip\xc8\v2.00\pic\include\mcp19215.h"
   136                           PWM2RL equ 015h ;# 
   137  0015                     # 1036 "C:\Program Files (x86)\Microchip\xc8\v2.00\pic\include\mcp19215.h"
   138                           PWM2RH equ 016h ;# 
   139  0016                     # 1056 "C:\Program Files (x86)\Microchip\xc8\v2.00\pic\include\mcp19215.h"
   140                           PWM1RL equ 017h ;# 
   141  0017                     # 1076 "C:\Program Files (x86)\Microchip\xc8\v2.00\pic\include\mcp19215.h"
   142                           PWM1RH equ 018h ;# 
   143  0018                     # 1096 "C:\Program Files (x86)\Microchip\xc8\v2.00\pic\include\mcp19215.h"
   144                           OSCTUNE equ 01Bh ;# 
   145  001B                     # 1140 "C:\Program Files (x86)\Microchip\xc8\v2.00\pic\include\mcp19215.h"
   146                           ADRES equ 01Ch ;# 
   147  001C                     # 1147 "C:\Program Files (x86)\Microchip\xc8\v2.00\pic\include\mcp19215.h"
   148                           ADRESL equ 01Ch ;# 
   149  001C                     # 1167 "C:\Program Files (x86)\Microchip\xc8\v2.00\pic\include\mcp19215.h"
   150                           ADRESH equ 01Dh ;# 
   151  001D                     # 1187 "C:\Program Files (x86)\Microchip\xc8\v2.00\pic\include\mcp19215.h"
   152                           ADCON0 equ 01Eh ;# 
   153  001E                     # 1258 "C:\Program Files (x86)\Microchip\xc8\v2.00\pic\include\mcp19215.h"
   154                           ADCON1 equ 01Fh ;# 
   155  001F                     # 1300 "C:\Program Files (x86)\Microchip\xc8\v2.00\pic\include\mcp19215.h"
   156                           OPTION_REG equ 081h ;# 
   157  0081                     # 1370 "C:\Program Files (x86)\Microchip\xc8\v2.00\pic\include\mcp19215.h"
   158                           TRISGPA equ 085h ;# 
   159  0085                     # 1375 "C:\Program Files (x86)\Microchip\xc8\v2.00\pic\include\mcp19215.h"
   160                           TRISA equ 085h ;# 
   161  0085                     # 1482 "C:\Program Files (x86)\Microchip\xc8\v2.00\pic\include\mcp19215.h"
   162                           TRISGPB equ 086h ;# 
   163  0086                     # 1487 "C:\Program Files (x86)\Microchip\xc8\v2.00\pic\include\mcp19215.h"
   164                           TRISB equ 086h ;# 
   165  0086                     # 1582 "C:\Program Files (x86)\Microchip\xc8\v2.00\pic\include\mcp19215.h"
   166                           PIE1 equ 087h ;# 
   167  0087                     # 1644 "C:\Program Files (x86)\Microchip\xc8\v2.00\pic\include\mcp19215.h"
   168                           PIE2 equ 088h ;# 
   169  0088                     # 1696 "C:\Program Files (x86)\Microchip\xc8\v2.00\pic\include\mcp19215.h"
   170                           PIE3 equ 089h ;# 
   171  0089                     # 1722 "C:\Program Files (x86)\Microchip\xc8\v2.00\pic\include\mcp19215.h"
   172                           VINUVLO equ 08Ch ;# 
   173  008C                     # 1742 "C:\Program Files (x86)\Microchip\xc8\v2.00\pic\include\mcp19215.h"
   174                           VINOVLO equ 08Dh ;# 
   175  008D                     # 1762 "C:\Program Files (x86)\Microchip\xc8\v2.00\pic\include\mcp19215.h"
   176                           VINCON equ 08Eh ;# 
   177  008E                     # 1824 "C:\Program Files (x86)\Microchip\xc8\v2.00\pic\include\mcp19215.h"
   178                           CREFCON1 equ 08Fh ;# 
   179  008F                     # 1844 "C:\Program Files (x86)\Microchip\xc8\v2.00\pic\include\mcp19215.h"
   180                           CREFCON2 equ 090h ;# 
   181  0090                     # 1864 "C:\Program Files (x86)\Microchip\xc8\v2.00\pic\include\mcp19215.h"
   182                           VREFCON1 equ 091h ;# 
   183  0091                     # 1884 "C:\Program Files (x86)\Microchip\xc8\v2.00\pic\include\mcp19215.h"
   184                           VREFCON2 equ 092h ;# 
   185  0092                     # 1904 "C:\Program Files (x86)\Microchip\xc8\v2.00\pic\include\mcp19215.h"
   186                           CC1RL equ 093h ;# 
   187  0093                     # 1924 "C:\Program Files (x86)\Microchip\xc8\v2.00\pic\include\mcp19215.h"
   188                           CC1RH equ 094h ;# 
   189  0094                     # 1944 "C:\Program Files (x86)\Microchip\xc8\v2.00\pic\include\mcp19215.h"
   190                           CC2RL equ 095h ;# 
   191  0095                     # 1964 "C:\Program Files (x86)\Microchip\xc8\v2.00\pic\include\mcp19215.h"
   192                           CC2RH equ 096h ;# 
   193  0096                     # 1984 "C:\Program Files (x86)\Microchip\xc8\v2.00\pic\include\mcp19215.h"
   194                           CCDCON equ 097h ;# 
   195  0097                     # 2010 "C:\Program Files (x86)\Microchip\xc8\v2.00\pic\include\mcp19215.h"
   196                           VDDCON equ 098h ;# 
   197  0098                     # 2061 "C:\Program Files (x86)\Microchip\xc8\v2.00\pic\include\mcp19215.h"
   198                           LOOPCON1 equ 099h ;# 
   199  0099                     # 2107 "C:\Program Files (x86)\Microchip\xc8\v2.00\pic\include\mcp19215.h"
   200                           LOOPCON2 equ 09Ah ;# 
   201  009A                     # 2153 "C:\Program Files (x86)\Microchip\xc8\v2.00\pic\include\mcp19215.h"
   202                           TTCAL equ 09Bh ;# 
   203  009B                     # 2180 "C:\Program Files (x86)\Microchip\xc8\v2.00\pic\include\mcp19215.h"
   204                           SLPCRCON1 equ 09Ch ;# 
   205  009C                     # 2206 "C:\Program Files (x86)\Microchip\xc8\v2.00\pic\include\mcp19215.h"
   206                           SLPCRCON2 equ 09Dh ;# 
   207  009D                     # 2232 "C:\Program Files (x86)\Microchip\xc8\v2.00\pic\include\mcp19215.h"
   208                           ICOACON equ 09Eh ;# 
   209  009E                     # 2258 "C:\Program Files (x86)\Microchip\xc8\v2.00\pic\include\mcp19215.h"
   210                           ICLEBCON equ 09Fh ;# 
   211  009F                     # 2284 "C:\Program Files (x86)\Microchip\xc8\v2.00\pic\include\mcp19215.h"
   212                           WPUGPA equ 0105h ;# 
   213  0105                     # 2386 "C:\Program Files (x86)\Microchip\xc8\v2.00\pic\include\mcp19215.h"
   214                           WPUGPB equ 0106h ;# 
   215  0106                     # 2476 "C:\Program Files (x86)\Microchip\xc8\v2.00\pic\include\mcp19215.h"
   216                           PE1 equ 0107h ;# 
   217  0107                     # 2527 "C:\Program Files (x86)\Microchip\xc8\v2.00\pic\include\mcp19215.h"
   218                           ABECON1 equ 010Ch ;# 
   219  010C                     # 2598 "C:\Program Files (x86)\Microchip\xc8\v2.00\pic\include\mcp19215.h"
   220                           ABECON2 equ 010Dh ;# 
   221  010D                     # 2632 "C:\Program Files (x86)\Microchip\xc8\v2.00\pic\include\mcp19215.h"
   222                           SSPADD equ 0110h ;# 
   223  0110                     # 2652 "C:\Program Files (x86)\Microchip\xc8\v2.00\pic\include\mcp19215.h"
   224                           SSPBUF equ 0111h ;# 
   225  0111                     # 2672 "C:\Program Files (x86)\Microchip\xc8\v2.00\pic\include\mcp19215.h"
   226                           SSPCON1 equ 0112h ;# 
   227  0112                     # 2742 "C:\Program Files (x86)\Microchip\xc8\v2.00\pic\include\mcp19215.h"
   228                           SSPCON2 equ 0113h ;# 
   229  0113                     # 2804 "C:\Program Files (x86)\Microchip\xc8\v2.00\pic\include\mcp19215.h"
   230                           SSPCON3 equ 0114h ;# 
   231  0114                     # 2866 "C:\Program Files (x86)\Microchip\xc8\v2.00\pic\include\mcp19215.h"
   232                           SSPMSK equ 0115h ;# 
   233  0115                     # 2886 "C:\Program Files (x86)\Microchip\xc8\v2.00\pic\include\mcp19215.h"
   234                           SSPSTAT equ 0116h ;# 
   235  0116                     # 2948 "C:\Program Files (x86)\Microchip\xc8\v2.00\pic\include\mcp19215.h"
   236                           SSPADD2 equ 0117h ;# 
   237  0117                     # 2968 "C:\Program Files (x86)\Microchip\xc8\v2.00\pic\include\mcp19215.h"
   238                           SSPMSK2 equ 0118h ;# 
   239  0118                     # 2988 "C:\Program Files (x86)\Microchip\xc8\v2.00\pic\include\mcp19215.h"
   240                           SPBRG equ 011Bh ;# 
   241  011B                     # 3050 "C:\Program Files (x86)\Microchip\xc8\v2.00\pic\include\mcp19215.h"
   242                           RCREG equ 011Ch ;# 
   243  011C                     # 3070 "C:\Program Files (x86)\Microchip\xc8\v2.00\pic\include\mcp19215.h"
   244                           TXREG equ 011Dh ;# 
   245  011D                     # 3090 "C:\Program Files (x86)\Microchip\xc8\v2.00\pic\include\mcp19215.h"
   246                           TXSTA equ 011Eh ;# 
   247  011E                     # 3147 "C:\Program Files (x86)\Microchip\xc8\v2.00\pic\include\mcp19215.h"
   248                           RCSTA equ 011Fh ;# 
   249  011F                     # 3209 "C:\Program Files (x86)\Microchip\xc8\v2.00\pic\include\mcp19215.h"
   250                           IOCA equ 0185h ;# 
   251  0185                     # 3266 "C:\Program Files (x86)\Microchip\xc8\v2.00\pic\include\mcp19215.h"
   252                           IOCB equ 0186h ;# 
   253  0186                     # 3317 "C:\Program Files (x86)\Microchip\xc8\v2.00\pic\include\mcp19215.h"
   254                           ANSELA equ 0187h ;# 
   255  0187                     # 3355 "C:\Program Files (x86)\Microchip\xc8\v2.00\pic\include\mcp19215.h"
   256                           ANSELB equ 0188h ;# 
   257  0188                     # 3395 "C:\Program Files (x86)\Microchip\xc8\v2.00\pic\include\mcp19215.h"
   258                           PMCON1 equ 0190h ;# 
   259  0190                     # 3434 "C:\Program Files (x86)\Microchip\xc8\v2.00\pic\include\mcp19215.h"
   260                           PMCON2 equ 0191h ;# 
   261  0191                     # 3454 "C:\Program Files (x86)\Microchip\xc8\v2.00\pic\include\mcp19215.h"
   262                           PMADR equ 0192h ;# 
   263  0192                     # 3461 "C:\Program Files (x86)\Microchip\xc8\v2.00\pic\include\mcp19215.h"
   264                           PMADRL equ 0192h ;# 
   265  0192                     # 3531 "C:\Program Files (x86)\Microchip\xc8\v2.00\pic\include\mcp19215.h"
   266                           PMADRH equ 0193h ;# 
   267  0193                     # 3577 "C:\Program Files (x86)\Microchip\xc8\v2.00\pic\include\mcp19215.h"
   268                           PMDAT equ 0194h ;# 
   269  0194                     # 3584 "C:\Program Files (x86)\Microchip\xc8\v2.00\pic\include\mcp19215.h"
   270                           PMDATL equ 0194h ;# 
   271  0194                     # 3654 "C:\Program Files (x86)\Microchip\xc8\v2.00\pic\include\mcp19215.h"
   272                           PMDATH equ 0195h ;# 
   273  0195                     # 3724 "C:\Program Files (x86)\Microchip\xc8\v2.00\pic\include\mcp19215.h"
   274                           GMCAL1 equ 0196h ;# 
   275  0196                     # 3750 "C:\Program Files (x86)\Microchip\xc8\v2.00\pic\include\mcp19215.h"
   276                           EACAL2 equ 0196h ;# 
   277  0196                     # 3776 "C:\Program Files (x86)\Microchip\xc8\v2.00\pic\include\mcp19215.h"
   278                           GMCAL2 equ 0197h ;# 
   279  0197                     # 3802 "C:\Program Files (x86)\Microchip\xc8\v2.00\pic\include\mcp19215.h"
   280                           DCSCAL1 equ 0198h ;# 
   281  0198                     # 3822 "C:\Program Files (x86)\Microchip\xc8\v2.00\pic\include\mcp19215.h"
   282                           DACCAL1 equ 0198h ;# 
   283  0198                     # 3848 "C:\Program Files (x86)\Microchip\xc8\v2.00\pic\include\mcp19215.h"
   284                           DCSCAL2 equ 0199h ;# 
   285  0199                     # 3868 "C:\Program Files (x86)\Microchip\xc8\v2.00\pic\include\mcp19215.h"
   286                           DACCAL2 equ 0199h ;# 
   287  0199                     # 3894 "C:\Program Files (x86)\Microchip\xc8\v2.00\pic\include\mcp19215.h"
   288                           ADBT equ 019Ah ;# 
   289  019A                     # 3915 "C:\Program Files (x86)\Microchip\xc8\v2.00\pic\include\mcp19215.h"
   290                           EACAL1 equ 019Ah ;# 
   291  019A                     # 3941 "C:\Program Files (x86)\Microchip\xc8\v2.00\pic\include\mcp19215.h"
   292                           DACBGRCAL equ 019Bh ;# 
   293  019B                     # 3967 "C:\Program Files (x86)\Microchip\xc8\v2.00\pic\include\mcp19215.h"
   294                           PDSCAL equ 019Ch ;# 
   295  019C                     # 3987 "C:\Program Files (x86)\Microchip\xc8\v2.00\pic\include\mcp19215.h"
   296                           VRCAL equ 019Dh ;# 
   297  019D                     # 4007 "C:\Program Files (x86)\Microchip\xc8\v2.00\pic\include\mcp19215.h"
   298                           OSCCAL equ 019Eh ;# 
   299  019E                     # 4027 "C:\Program Files (x86)\Microchip\xc8\v2.00\pic\include\mcp19215.h"
   300                           ATSTCON equ 019Fh ;# 
   301  019F                     # 54 "C:\Program Files (x86)\Microchip\xc8\v2.00\pic\include\mcp19215.h"
   302                           INDF equ 00h ;# 
   303  0000                     # 61 "C:\Program Files (x86)\Microchip\xc8\v2.00\pic\include\mcp19215.h"
   304                           TMR0 equ 01h ;# 
   305  0001                     # 68 "C:\Program Files (x86)\Microchip\xc8\v2.00\pic\include\mcp19215.h"
   306                           PCL equ 02h ;# 
   307  0002                     # 75 "C:\Program Files (x86)\Microchip\xc8\v2.00\pic\include\mcp19215.h"
   308                           STATUS equ 03h ;# 
   309  0003                     # 161 "C:\Program Files (x86)\Microchip\xc8\v2.00\pic\include\mcp19215.h"
   310                           FSR equ 04h ;# 
   311  0004                     # 168 "C:\Program Files (x86)\Microchip\xc8\v2.00\pic\include\mcp19215.h"
   312                           PORTGPA equ 05h ;# 
   313  0005                     # 173 "C:\Program Files (x86)\Microchip\xc8\v2.00\pic\include\mcp19215.h"
   314                           PORTA equ 05h ;# 
   315  0005                     # 460 "C:\Program Files (x86)\Microchip\xc8\v2.00\pic\include\mcp19215.h"
   316                           PORTGPB equ 06h ;# 
   317  0006                     # 465 "C:\Program Files (x86)\Microchip\xc8\v2.00\pic\include\mcp19215.h"
   318                           PORTB equ 06h ;# 
   319  0006                     # 638 "C:\Program Files (x86)\Microchip\xc8\v2.00\pic\include\mcp19215.h"
   320                           PIR1 equ 07h ;# 
   321  0007                     # 700 "C:\Program Files (x86)\Microchip\xc8\v2.00\pic\include\mcp19215.h"
   322                           PIR2 equ 08h ;# 
   323  0008                     # 752 "C:\Program Files (x86)\Microchip\xc8\v2.00\pic\include\mcp19215.h"
   324                           PIR3 equ 09h ;# 
   325  0009                     # 778 "C:\Program Files (x86)\Microchip\xc8\v2.00\pic\include\mcp19215.h"
   326                           PCLATH equ 0Ah ;# 
   327  000A                     # 785 "C:\Program Files (x86)\Microchip\xc8\v2.00\pic\include\mcp19215.h"
   328                           INTCON equ 0Bh ;# 
   329  000B                     # 847 "C:\Program Files (x86)\Microchip\xc8\v2.00\pic\include\mcp19215.h"
   330                           TMR1 equ 0Ch ;# 
   331  000C                     # 854 "C:\Program Files (x86)\Microchip\xc8\v2.00\pic\include\mcp19215.h"
   332                           TMR1L equ 0Ch ;# 
   333  000C                     # 861 "C:\Program Files (x86)\Microchip\xc8\v2.00\pic\include\mcp19215.h"
   334                           TMR1H equ 0Dh ;# 
   335  000D                     # 868 "C:\Program Files (x86)\Microchip\xc8\v2.00\pic\include\mcp19215.h"
   336                           T1CON equ 0Eh ;# 
   337  000E                     # 916 "C:\Program Files (x86)\Microchip\xc8\v2.00\pic\include\mcp19215.h"
   338                           TMR2 equ 0Fh ;# 
   339  000F                     # 923 "C:\Program Files (x86)\Microchip\xc8\v2.00\pic\include\mcp19215.h"
   340                           T2CON equ 010h ;# 
   341  0010                     # 949 "C:\Program Files (x86)\Microchip\xc8\v2.00\pic\include\mcp19215.h"
   342                           PR2 equ 011h ;# 
   343  0011                     # 969 "C:\Program Files (x86)\Microchip\xc8\v2.00\pic\include\mcp19215.h"
   344                           PCON equ 012h ;# 
   345  0012                     # 976 "C:\Program Files (x86)\Microchip\xc8\v2.00\pic\include\mcp19215.h"
   346                           PWM2PHL equ 013h ;# 
   347  0013                     # 996 "C:\Program Files (x86)\Microchip\xc8\v2.00\pic\include\mcp19215.h"
   348                           PWM2PHH equ 014h ;# 
   349  0014                     # 1016 "C:\Program Files (x86)\Microchip\xc8\v2.00\pic\include\mcp19215.h"
   350                           PWM2RL equ 015h ;# 
   351  0015                     # 1036 "C:\Program Files (x86)\Microchip\xc8\v2.00\pic\include\mcp19215.h"
   352                           PWM2RH equ 016h ;# 
   353  0016                     # 1056 "C:\Program Files (x86)\Microchip\xc8\v2.00\pic\include\mcp19215.h"
   354                           PWM1RL equ 017h ;# 
   355  0017                     # 1076 "C:\Program Files (x86)\Microchip\xc8\v2.00\pic\include\mcp19215.h"
   356                           PWM1RH equ 018h ;# 
   357  0018                     # 1096 "C:\Program Files (x86)\Microchip\xc8\v2.00\pic\include\mcp19215.h"
   358                           OSCTUNE equ 01Bh ;# 
   359  001B                     # 1140 "C:\Program Files (x86)\Microchip\xc8\v2.00\pic\include\mcp19215.h"
   360                           ADRES equ 01Ch ;# 
   361  001C                     # 1147 "C:\Program Files (x86)\Microchip\xc8\v2.00\pic\include\mcp19215.h"
   362                           ADRESL equ 01Ch ;# 
   363  001C                     # 1167 "C:\Program Files (x86)\Microchip\xc8\v2.00\pic\include\mcp19215.h"
   364                           ADRESH equ 01Dh ;# 
   365  001D                     # 1187 "C:\Program Files (x86)\Microchip\xc8\v2.00\pic\include\mcp19215.h"
   366                           ADCON0 equ 01Eh ;# 
   367  001E                     # 1258 "C:\Program Files (x86)\Microchip\xc8\v2.00\pic\include\mcp19215.h"
   368                           ADCON1 equ 01Fh ;# 
   369  001F                     # 1300 "C:\Program Files (x86)\Microchip\xc8\v2.00\pic\include\mcp19215.h"
   370                           OPTION_REG equ 081h ;# 
   371  0081                     # 1370 "C:\Program Files (x86)\Microchip\xc8\v2.00\pic\include\mcp19215.h"
   372                           TRISGPA equ 085h ;# 
   373  0085                     # 1375 "C:\Program Files (x86)\Microchip\xc8\v2.00\pic\include\mcp19215.h"
   374                           TRISA equ 085h ;# 
   375  0085                     # 1482 "C:\Program Files (x86)\Microchip\xc8\v2.00\pic\include\mcp19215.h"
   376                           TRISGPB equ 086h ;# 
   377  0086                     # 1487 "C:\Program Files (x86)\Microchip\xc8\v2.00\pic\include\mcp19215.h"
   378                           TRISB equ 086h ;# 
   379  0086                     # 1582 "C:\Program Files (x86)\Microchip\xc8\v2.00\pic\include\mcp19215.h"
   380                           PIE1 equ 087h ;# 
   381  0087                     # 1644 "C:\Program Files (x86)\Microchip\xc8\v2.00\pic\include\mcp19215.h"
   382                           PIE2 equ 088h ;# 
   383  0088                     # 1696 "C:\Program Files (x86)\Microchip\xc8\v2.00\pic\include\mcp19215.h"
   384                           PIE3 equ 089h ;# 
   385  0089                     # 1722 "C:\Program Files (x86)\Microchip\xc8\v2.00\pic\include\mcp19215.h"
   386                           VINUVLO equ 08Ch ;# 
   387  008C                     # 1742 "C:\Program Files (x86)\Microchip\xc8\v2.00\pic\include\mcp19215.h"
   388                           VINOVLO equ 08Dh ;# 
   389  008D                     # 1762 "C:\Program Files (x86)\Microchip\xc8\v2.00\pic\include\mcp19215.h"
   390                           VINCON equ 08Eh ;# 
   391  008E                     # 1824 "C:\Program Files (x86)\Microchip\xc8\v2.00\pic\include\mcp19215.h"
   392                           CREFCON1 equ 08Fh ;# 
   393  008F                     # 1844 "C:\Program Files (x86)\Microchip\xc8\v2.00\pic\include\mcp19215.h"
   394                           CREFCON2 equ 090h ;# 
   395  0090                     # 1864 "C:\Program Files (x86)\Microchip\xc8\v2.00\pic\include\mcp19215.h"
   396                           VREFCON1 equ 091h ;# 
   397  0091                     # 1884 "C:\Program Files (x86)\Microchip\xc8\v2.00\pic\include\mcp19215.h"
   398                           VREFCON2 equ 092h ;# 
   399  0092                     # 1904 "C:\Program Files (x86)\Microchip\xc8\v2.00\pic\include\mcp19215.h"
   400                           CC1RL equ 093h ;# 
   401  0093                     # 1924 "C:\Program Files (x86)\Microchip\xc8\v2.00\pic\include\mcp19215.h"
   402                           CC1RH equ 094h ;# 
   403  0094                     # 1944 "C:\Program Files (x86)\Microchip\xc8\v2.00\pic\include\mcp19215.h"
   404                           CC2RL equ 095h ;# 
   405  0095                     # 1964 "C:\Program Files (x86)\Microchip\xc8\v2.00\pic\include\mcp19215.h"
   406                           CC2RH equ 096h ;# 
   407  0096                     # 1984 "C:\Program Files (x86)\Microchip\xc8\v2.00\pic\include\mcp19215.h"
   408                           CCDCON equ 097h ;# 
   409  0097                     # 2010 "C:\Program Files (x86)\Microchip\xc8\v2.00\pic\include\mcp19215.h"
   410                           VDDCON equ 098h ;# 
   411  0098                     # 2061 "C:\Program Files (x86)\Microchip\xc8\v2.00\pic\include\mcp19215.h"
   412                           LOOPCON1 equ 099h ;# 
   413  0099                     # 2107 "C:\Program Files (x86)\Microchip\xc8\v2.00\pic\include\mcp19215.h"
   414                           LOOPCON2 equ 09Ah ;# 
   415  009A                     # 2153 "C:\Program Files (x86)\Microchip\xc8\v2.00\pic\include\mcp19215.h"
   416                           TTCAL equ 09Bh ;# 
   417  009B                     # 2180 "C:\Program Files (x86)\Microchip\xc8\v2.00\pic\include\mcp19215.h"
   418                           SLPCRCON1 equ 09Ch ;# 
   419  009C                     # 2206 "C:\Program Files (x86)\Microchip\xc8\v2.00\pic\include\mcp19215.h"
   420                           SLPCRCON2 equ 09Dh ;# 
   421  009D                     # 2232 "C:\Program Files (x86)\Microchip\xc8\v2.00\pic\include\mcp19215.h"
   422                           ICOACON equ 09Eh ;# 
   423  009E                     # 2258 "C:\Program Files (x86)\Microchip\xc8\v2.00\pic\include\mcp19215.h"
   424                           ICLEBCON equ 09Fh ;# 
   425  009F                     # 2284 "C:\Program Files (x86)\Microchip\xc8\v2.00\pic\include\mcp19215.h"
   426                           WPUGPA equ 0105h ;# 
   427  0105                     # 2386 "C:\Program Files (x86)\Microchip\xc8\v2.00\pic\include\mcp19215.h"
   428                           WPUGPB equ 0106h ;# 
   429  0106                     # 2476 "C:\Program Files (x86)\Microchip\xc8\v2.00\pic\include\mcp19215.h"
   430                           PE1 equ 0107h ;# 
   431  0107                     # 2527 "C:\Program Files (x86)\Microchip\xc8\v2.00\pic\include\mcp19215.h"
   432                           ABECON1 equ 010Ch ;# 
   433  010C                     # 2598 "C:\Program Files (x86)\Microchip\xc8\v2.00\pic\include\mcp19215.h"
   434                           ABECON2 equ 010Dh ;# 
   435  010D                     # 2632 "C:\Program Files (x86)\Microchip\xc8\v2.00\pic\include\mcp19215.h"
   436                           SSPADD equ 0110h ;# 
   437  0110                     # 2652 "C:\Program Files (x86)\Microchip\xc8\v2.00\pic\include\mcp19215.h"
   438                           SSPBUF equ 0111h ;# 
   439  0111                     # 2672 "C:\Program Files (x86)\Microchip\xc8\v2.00\pic\include\mcp19215.h"
   440                           SSPCON1 equ 0112h ;# 
   441  0112                     # 2742 "C:\Program Files (x86)\Microchip\xc8\v2.00\pic\include\mcp19215.h"
   442                           SSPCON2 equ 0113h ;# 
   443  0113                     # 2804 "C:\Program Files (x86)\Microchip\xc8\v2.00\pic\include\mcp19215.h"
   444                           SSPCON3 equ 0114h ;# 
   445  0114                     # 2866 "C:\Program Files (x86)\Microchip\xc8\v2.00\pic\include\mcp19215.h"
   446                           SSPMSK equ 0115h ;# 
   447  0115                     # 2886 "C:\Program Files (x86)\Microchip\xc8\v2.00\pic\include\mcp19215.h"
   448                           SSPSTAT equ 0116h ;# 
   449  0116                     # 2948 "C:\Program Files (x86)\Microchip\xc8\v2.00\pic\include\mcp19215.h"
   450                           SSPADD2 equ 0117h ;# 
   451  0117                     # 2968 "C:\Program Files (x86)\Microchip\xc8\v2.00\pic\include\mcp19215.h"
   452                           SSPMSK2 equ 0118h ;# 
   453  0118                     # 2988 "C:\Program Files (x86)\Microchip\xc8\v2.00\pic\include\mcp19215.h"
   454                           SPBRG equ 011Bh ;# 
   455  011B                     # 3050 "C:\Program Files (x86)\Microchip\xc8\v2.00\pic\include\mcp19215.h"
   456                           RCREG equ 011Ch ;# 
   457  011C                     # 3070 "C:\Program Files (x86)\Microchip\xc8\v2.00\pic\include\mcp19215.h"
   458                           TXREG equ 011Dh ;# 
   459  011D                     # 3090 "C:\Program Files (x86)\Microchip\xc8\v2.00\pic\include\mcp19215.h"
   460                           TXSTA equ 011Eh ;# 
   461  011E                     # 3147 "C:\Program Files (x86)\Microchip\xc8\v2.00\pic\include\mcp19215.h"
   462                           RCSTA equ 011Fh ;# 
   463  011F                     # 3209 "C:\Program Files (x86)\Microchip\xc8\v2.00\pic\include\mcp19215.h"
   464                           IOCA equ 0185h ;# 
   465  0185                     # 3266 "C:\Program Files (x86)\Microchip\xc8\v2.00\pic\include\mcp19215.h"
   466                           IOCB equ 0186h ;# 
   467  0186                     # 3317 "C:\Program Files (x86)\Microchip\xc8\v2.00\pic\include\mcp19215.h"
   468                           ANSELA equ 0187h ;# 
   469  0187                     # 3355 "C:\Program Files (x86)\Microchip\xc8\v2.00\pic\include\mcp19215.h"
   470                           ANSELB equ 0188h ;# 
   471  0188                     # 3395 "C:\Program Files (x86)\Microchip\xc8\v2.00\pic\include\mcp19215.h"
   472                           PMCON1 equ 0190h ;# 
   473  0190                     # 3434 "C:\Program Files (x86)\Microchip\xc8\v2.00\pic\include\mcp19215.h"
   474                           PMCON2 equ 0191h ;# 
   475  0191                     # 3454 "C:\Program Files (x86)\Microchip\xc8\v2.00\pic\include\mcp19215.h"
   476                           PMADR equ 0192h ;# 
   477  0192                     # 3461 "C:\Program Files (x86)\Microchip\xc8\v2.00\pic\include\mcp19215.h"
   478                           PMADRL equ 0192h ;# 
   479  0192                     # 3531 "C:\Program Files (x86)\Microchip\xc8\v2.00\pic\include\mcp19215.h"
   480                           PMADRH equ 0193h ;# 
   481  0193                     # 3577 "C:\Program Files (x86)\Microchip\xc8\v2.00\pic\include\mcp19215.h"
   482                           PMDAT equ 0194h ;# 
   483  0194                     # 3584 "C:\Program Files (x86)\Microchip\xc8\v2.00\pic\include\mcp19215.h"
   484                           PMDATL equ 0194h ;# 
   485  0194                     # 3654 "C:\Program Files (x86)\Microchip\xc8\v2.00\pic\include\mcp19215.h"
   486                           PMDATH equ 0195h ;# 
   487  0195                     # 3724 "C:\Program Files (x86)\Microchip\xc8\v2.00\pic\include\mcp19215.h"
   488                           GMCAL1 equ 0196h ;# 
   489  0196                     # 3750 "C:\Program Files (x86)\Microchip\xc8\v2.00\pic\include\mcp19215.h"
   490                           EACAL2 equ 0196h ;# 
   491  0196                     # 3776 "C:\Program Files (x86)\Microchip\xc8\v2.00\pic\include\mcp19215.h"
   492                           GMCAL2 equ 0197h ;# 
   493  0197                     # 3802 "C:\Program Files (x86)\Microchip\xc8\v2.00\pic\include\mcp19215.h"
   494                           DCSCAL1 equ 0198h ;# 
   495  0198                     # 3822 "C:\Program Files (x86)\Microchip\xc8\v2.00\pic\include\mcp19215.h"
   496                           DACCAL1 equ 0198h ;# 
   497  0198                     # 3848 "C:\Program Files (x86)\Microchip\xc8\v2.00\pic\include\mcp19215.h"
   498                           DCSCAL2 equ 0199h ;# 
   499  0199                     # 3868 "C:\Program Files (x86)\Microchip\xc8\v2.00\pic\include\mcp19215.h"
   500                           DACCAL2 equ 0199h ;# 
   501  0199                     # 3894 "C:\Program Files (x86)\Microchip\xc8\v2.00\pic\include\mcp19215.h"
   502                           ADBT equ 019Ah ;# 
   503  019A                     # 3915 "C:\Program Files (x86)\Microchip\xc8\v2.00\pic\include\mcp19215.h"
   504                           EACAL1 equ 019Ah ;# 
   505  019A                     # 3941 "C:\Program Files (x86)\Microchip\xc8\v2.00\pic\include\mcp19215.h"
   506                           DACBGRCAL equ 019Bh ;# 
   507  019B                     # 3967 "C:\Program Files (x86)\Microchip\xc8\v2.00\pic\include\mcp19215.h"
   508                           PDSCAL equ 019Ch ;# 
   509  019C                     # 3987 "C:\Program Files (x86)\Microchip\xc8\v2.00\pic\include\mcp19215.h"
   510                           VRCAL equ 019Dh ;# 
   511  019D                     # 4007 "C:\Program Files (x86)\Microchip\xc8\v2.00\pic\include\mcp19215.h"
   512                           OSCCAL equ 019Eh ;# 
   513  019E                     # 4027 "C:\Program Files (x86)\Microchip\xc8\v2.00\pic\include\mcp19215.h"
   514                           ATSTCON equ 019Fh ;# 
   515  019F                     # 54 "C:\Program Files (x86)\Microchip\xc8\v2.00\pic\include\mcp19215.h"
   516                           INDF equ 00h ;# 
   517  0000                     # 61 "C:\Program Files (x86)\Microchip\xc8\v2.00\pic\include\mcp19215.h"
   518                           TMR0 equ 01h ;# 
   519  0001                     # 68 "C:\Program Files (x86)\Microchip\xc8\v2.00\pic\include\mcp19215.h"
   520                           PCL equ 02h ;# 
   521  0002                     # 75 "C:\Program Files (x86)\Microchip\xc8\v2.00\pic\include\mcp19215.h"
   522                           STATUS equ 03h ;# 
   523  0003                     # 161 "C:\Program Files (x86)\Microchip\xc8\v2.00\pic\include\mcp19215.h"
   524                           FSR equ 04h ;# 
   525  0004                     # 168 "C:\Program Files (x86)\Microchip\xc8\v2.00\pic\include\mcp19215.h"
   526                           PORTGPA equ 05h ;# 
   527  0005                     # 173 "C:\Program Files (x86)\Microchip\xc8\v2.00\pic\include\mcp19215.h"
   528                           PORTA equ 05h ;# 
   529  0005                     # 460 "C:\Program Files (x86)\Microchip\xc8\v2.00\pic\include\mcp19215.h"
   530                           PORTGPB equ 06h ;# 
   531  0006                     # 465 "C:\Program Files (x86)\Microchip\xc8\v2.00\pic\include\mcp19215.h"
   532                           PORTB equ 06h ;# 
   533  0006                     # 638 "C:\Program Files (x86)\Microchip\xc8\v2.00\pic\include\mcp19215.h"
   534                           PIR1 equ 07h ;# 
   535  0007                     # 700 "C:\Program Files (x86)\Microchip\xc8\v2.00\pic\include\mcp19215.h"
   536                           PIR2 equ 08h ;# 
   537  0008                     # 752 "C:\Program Files (x86)\Microchip\xc8\v2.00\pic\include\mcp19215.h"
   538                           PIR3 equ 09h ;# 
   539  0009                     # 778 "C:\Program Files (x86)\Microchip\xc8\v2.00\pic\include\mcp19215.h"
   540                           PCLATH equ 0Ah ;# 
   541  000A                     # 785 "C:\Program Files (x86)\Microchip\xc8\v2.00\pic\include\mcp19215.h"
   542                           INTCON equ 0Bh ;# 
   543  000B                     # 847 "C:\Program Files (x86)\Microchip\xc8\v2.00\pic\include\mcp19215.h"
   544                           TMR1 equ 0Ch ;# 
   545  000C                     # 854 "C:\Program Files (x86)\Microchip\xc8\v2.00\pic\include\mcp19215.h"
   546                           TMR1L equ 0Ch ;# 
   547  000C                     # 861 "C:\Program Files (x86)\Microchip\xc8\v2.00\pic\include\mcp19215.h"
   548                           TMR1H equ 0Dh ;# 
   549  000D                     # 868 "C:\Program Files (x86)\Microchip\xc8\v2.00\pic\include\mcp19215.h"
   550                           T1CON equ 0Eh ;# 
   551  000E                     # 916 "C:\Program Files (x86)\Microchip\xc8\v2.00\pic\include\mcp19215.h"
   552                           TMR2 equ 0Fh ;# 
   553  000F                     # 923 "C:\Program Files (x86)\Microchip\xc8\v2.00\pic\include\mcp19215.h"
   554                           T2CON equ 010h ;# 
   555  0010                     # 949 "C:\Program Files (x86)\Microchip\xc8\v2.00\pic\include\mcp19215.h"
   556                           PR2 equ 011h ;# 
   557  0011                     # 969 "C:\Program Files (x86)\Microchip\xc8\v2.00\pic\include\mcp19215.h"
   558                           PCON equ 012h ;# 
   559  0012                     # 976 "C:\Program Files (x86)\Microchip\xc8\v2.00\pic\include\mcp19215.h"
   560                           PWM2PHL equ 013h ;# 
   561  0013                     # 996 "C:\Program Files (x86)\Microchip\xc8\v2.00\pic\include\mcp19215.h"
   562                           PWM2PHH equ 014h ;# 
   563  0014                     # 1016 "C:\Program Files (x86)\Microchip\xc8\v2.00\pic\include\mcp19215.h"
   564                           PWM2RL equ 015h ;# 
   565  0015                     # 1036 "C:\Program Files (x86)\Microchip\xc8\v2.00\pic\include\mcp19215.h"
   566                           PWM2RH equ 016h ;# 
   567  0016                     # 1056 "C:\Program Files (x86)\Microchip\xc8\v2.00\pic\include\mcp19215.h"
   568                           PWM1RL equ 017h ;# 
   569  0017                     # 1076 "C:\Program Files (x86)\Microchip\xc8\v2.00\pic\include\mcp19215.h"
   570                           PWM1RH equ 018h ;# 
   571  0018                     # 1096 "C:\Program Files (x86)\Microchip\xc8\v2.00\pic\include\mcp19215.h"
   572                           OSCTUNE equ 01Bh ;# 
   573  001B                     # 1140 "C:\Program Files (x86)\Microchip\xc8\v2.00\pic\include\mcp19215.h"
   574                           ADRES equ 01Ch ;# 
   575  001C                     # 1147 "C:\Program Files (x86)\Microchip\xc8\v2.00\pic\include\mcp19215.h"
   576                           ADRESL equ 01Ch ;# 
   577  001C                     # 1167 "C:\Program Files (x86)\Microchip\xc8\v2.00\pic\include\mcp19215.h"
   578                           ADRESH equ 01Dh ;# 
   579  001D                     # 1187 "C:\Program Files (x86)\Microchip\xc8\v2.00\pic\include\mcp19215.h"
   580                           ADCON0 equ 01Eh ;# 
   581  001E                     # 1258 "C:\Program Files (x86)\Microchip\xc8\v2.00\pic\include\mcp19215.h"
   582                           ADCON1 equ 01Fh ;# 
   583  001F                     # 1300 "C:\Program Files (x86)\Microchip\xc8\v2.00\pic\include\mcp19215.h"
   584                           OPTION_REG equ 081h ;# 
   585  0081                     # 1370 "C:\Program Files (x86)\Microchip\xc8\v2.00\pic\include\mcp19215.h"
   586                           TRISGPA equ 085h ;# 
   587  0085                     # 1375 "C:\Program Files (x86)\Microchip\xc8\v2.00\pic\include\mcp19215.h"
   588                           TRISA equ 085h ;# 
   589  0085                     # 1482 "C:\Program Files (x86)\Microchip\xc8\v2.00\pic\include\mcp19215.h"
   590                           TRISGPB equ 086h ;# 
   591  0086                     # 1487 "C:\Program Files (x86)\Microchip\xc8\v2.00\pic\include\mcp19215.h"
   592                           TRISB equ 086h ;# 
   593  0086                     # 1582 "C:\Program Files (x86)\Microchip\xc8\v2.00\pic\include\mcp19215.h"
   594                           PIE1 equ 087h ;# 
   595  0087                     # 1644 "C:\Program Files (x86)\Microchip\xc8\v2.00\pic\include\mcp19215.h"
   596                           PIE2 equ 088h ;# 
   597  0088                     # 1696 "C:\Program Files (x86)\Microchip\xc8\v2.00\pic\include\mcp19215.h"
   598                           PIE3 equ 089h ;# 
   599  0089                     # 1722 "C:\Program Files (x86)\Microchip\xc8\v2.00\pic\include\mcp19215.h"
   600                           VINUVLO equ 08Ch ;# 
   601  008C                     # 1742 "C:\Program Files (x86)\Microchip\xc8\v2.00\pic\include\mcp19215.h"
   602                           VINOVLO equ 08Dh ;# 
   603  008D                     # 1762 "C:\Program Files (x86)\Microchip\xc8\v2.00\pic\include\mcp19215.h"
   604                           VINCON equ 08Eh ;# 
   605  008E                     # 1824 "C:\Program Files (x86)\Microchip\xc8\v2.00\pic\include\mcp19215.h"
   606                           CREFCON1 equ 08Fh ;# 
   607  008F                     # 1844 "C:\Program Files (x86)\Microchip\xc8\v2.00\pic\include\mcp19215.h"
   608                           CREFCON2 equ 090h ;# 
   609  0090                     # 1864 "C:\Program Files (x86)\Microchip\xc8\v2.00\pic\include\mcp19215.h"
   610                           VREFCON1 equ 091h ;# 
   611  0091                     # 1884 "C:\Program Files (x86)\Microchip\xc8\v2.00\pic\include\mcp19215.h"
   612                           VREFCON2 equ 092h ;# 
   613  0092                     # 1904 "C:\Program Files (x86)\Microchip\xc8\v2.00\pic\include\mcp19215.h"
   614                           CC1RL equ 093h ;# 
   615  0093                     # 1924 "C:\Program Files (x86)\Microchip\xc8\v2.00\pic\include\mcp19215.h"
   616                           CC1RH equ 094h ;# 
   617  0094                     # 1944 "C:\Program Files (x86)\Microchip\xc8\v2.00\pic\include\mcp19215.h"
   618                           CC2RL equ 095h ;# 
   619  0095                     # 1964 "C:\Program Files (x86)\Microchip\xc8\v2.00\pic\include\mcp19215.h"
   620                           CC2RH equ 096h ;# 
   621  0096                     # 1984 "C:\Program Files (x86)\Microchip\xc8\v2.00\pic\include\mcp19215.h"
   622                           CCDCON equ 097h ;# 
   623  0097                     # 2010 "C:\Program Files (x86)\Microchip\xc8\v2.00\pic\include\mcp19215.h"
   624                           VDDCON equ 098h ;# 
   625  0098                     # 2061 "C:\Program Files (x86)\Microchip\xc8\v2.00\pic\include\mcp19215.h"
   626                           LOOPCON1 equ 099h ;# 
   627  0099                     # 2107 "C:\Program Files (x86)\Microchip\xc8\v2.00\pic\include\mcp19215.h"
   628                           LOOPCON2 equ 09Ah ;# 
   629  009A                     # 2153 "C:\Program Files (x86)\Microchip\xc8\v2.00\pic\include\mcp19215.h"
   630                           TTCAL equ 09Bh ;# 
   631  009B                     # 2180 "C:\Program Files (x86)\Microchip\xc8\v2.00\pic\include\mcp19215.h"
   632                           SLPCRCON1 equ 09Ch ;# 
   633  009C                     # 2206 "C:\Program Files (x86)\Microchip\xc8\v2.00\pic\include\mcp19215.h"
   634                           SLPCRCON2 equ 09Dh ;# 
   635  009D                     # 2232 "C:\Program Files (x86)\Microchip\xc8\v2.00\pic\include\mcp19215.h"
   636                           ICOACON equ 09Eh ;# 
   637  009E                     # 2258 "C:\Program Files (x86)\Microchip\xc8\v2.00\pic\include\mcp19215.h"
   638                           ICLEBCON equ 09Fh ;# 
   639  009F                     # 2284 "C:\Program Files (x86)\Microchip\xc8\v2.00\pic\include\mcp19215.h"
   640                           WPUGPA equ 0105h ;# 
   641  0105                     # 2386 "C:\Program Files (x86)\Microchip\xc8\v2.00\pic\include\mcp19215.h"
   642                           WPUGPB equ 0106h ;# 
   643  0106                     # 2476 "C:\Program Files (x86)\Microchip\xc8\v2.00\pic\include\mcp19215.h"
   644                           PE1 equ 0107h ;# 
   645  0107                     # 2527 "C:\Program Files (x86)\Microchip\xc8\v2.00\pic\include\mcp19215.h"
   646                           ABECON1 equ 010Ch ;# 
   647  010C                     # 2598 "C:\Program Files (x86)\Microchip\xc8\v2.00\pic\include\mcp19215.h"
   648                           ABECON2 equ 010Dh ;# 
   649  010D                     # 2632 "C:\Program Files (x86)\Microchip\xc8\v2.00\pic\include\mcp19215.h"
   650                           SSPADD equ 0110h ;# 
   651  0110                     # 2652 "C:\Program Files (x86)\Microchip\xc8\v2.00\pic\include\mcp19215.h"
   652                           SSPBUF equ 0111h ;# 
   653  0111                     # 2672 "C:\Program Files (x86)\Microchip\xc8\v2.00\pic\include\mcp19215.h"
   654                           SSPCON1 equ 0112h ;# 
   655  0112                     # 2742 "C:\Program Files (x86)\Microchip\xc8\v2.00\pic\include\mcp19215.h"
   656                           SSPCON2 equ 0113h ;# 
   657  0113                     # 2804 "C:\Program Files (x86)\Microchip\xc8\v2.00\pic\include\mcp19215.h"
   658                           SSPCON3 equ 0114h ;# 
   659  0114                     # 2866 "C:\Program Files (x86)\Microchip\xc8\v2.00\pic\include\mcp19215.h"
   660                           SSPMSK equ 0115h ;# 
   661  0115                     # 2886 "C:\Program Files (x86)\Microchip\xc8\v2.00\pic\include\mcp19215.h"
   662                           SSPSTAT equ 0116h ;# 
   663  0116                     # 2948 "C:\Program Files (x86)\Microchip\xc8\v2.00\pic\include\mcp19215.h"
   664                           SSPADD2 equ 0117h ;# 
   665  0117                     # 2968 "C:\Program Files (x86)\Microchip\xc8\v2.00\pic\include\mcp19215.h"
   666                           SSPMSK2 equ 0118h ;# 
   667  0118                     # 2988 "C:\Program Files (x86)\Microchip\xc8\v2.00\pic\include\mcp19215.h"
   668                           SPBRG equ 011Bh ;# 
   669  011B                     # 3050 "C:\Program Files (x86)\Microchip\xc8\v2.00\pic\include\mcp19215.h"
   670                           RCREG equ 011Ch ;# 
   671  011C                     # 3070 "C:\Program Files (x86)\Microchip\xc8\v2.00\pic\include\mcp19215.h"
   672                           TXREG equ 011Dh ;# 
   673  011D                     # 3090 "C:\Program Files (x86)\Microchip\xc8\v2.00\pic\include\mcp19215.h"
   674                           TXSTA equ 011Eh ;# 
   675  011E                     # 3147 "C:\Program Files (x86)\Microchip\xc8\v2.00\pic\include\mcp19215.h"
   676                           RCSTA equ 011Fh ;# 
   677  011F                     # 3209 "C:\Program Files (x86)\Microchip\xc8\v2.00\pic\include\mcp19215.h"
   678                           IOCA equ 0185h ;# 
   679  0185                     # 3266 "C:\Program Files (x86)\Microchip\xc8\v2.00\pic\include\mcp19215.h"
   680                           IOCB equ 0186h ;# 
   681  0186                     # 3317 "C:\Program Files (x86)\Microchip\xc8\v2.00\pic\include\mcp19215.h"
   682                           ANSELA equ 0187h ;# 
   683  0187                     # 3355 "C:\Program Files (x86)\Microchip\xc8\v2.00\pic\include\mcp19215.h"
   684                           ANSELB equ 0188h ;# 
   685  0188                     # 3395 "C:\Program Files (x86)\Microchip\xc8\v2.00\pic\include\mcp19215.h"
   686                           PMCON1 equ 0190h ;# 
   687  0190                     # 3434 "C:\Program Files (x86)\Microchip\xc8\v2.00\pic\include\mcp19215.h"
   688                           PMCON2 equ 0191h ;# 
   689  0191                     # 3454 "C:\Program Files (x86)\Microchip\xc8\v2.00\pic\include\mcp19215.h"
   690                           PMADR equ 0192h ;# 
   691  0192                     # 3461 "C:\Program Files (x86)\Microchip\xc8\v2.00\pic\include\mcp19215.h"
   692                           PMADRL equ 0192h ;# 
   693  0192                     # 3531 "C:\Program Files (x86)\Microchip\xc8\v2.00\pic\include\mcp19215.h"
   694                           PMADRH equ 0193h ;# 
   695  0193                     # 3577 "C:\Program Files (x86)\Microchip\xc8\v2.00\pic\include\mcp19215.h"
   696                           PMDAT equ 0194h ;# 
   697  0194                     # 3584 "C:\Program Files (x86)\Microchip\xc8\v2.00\pic\include\mcp19215.h"
   698                           PMDATL equ 0194h ;# 
   699  0194                     # 3654 "C:\Program Files (x86)\Microchip\xc8\v2.00\pic\include\mcp19215.h"
   700                           PMDATH equ 0195h ;# 
   701  0195                     # 3724 "C:\Program Files (x86)\Microchip\xc8\v2.00\pic\include\mcp19215.h"
   702                           GMCAL1 equ 0196h ;# 
   703  0196                     # 3750 "C:\Program Files (x86)\Microchip\xc8\v2.00\pic\include\mcp19215.h"
   704                           EACAL2 equ 0196h ;# 
   705  0196                     # 3776 "C:\Program Files (x86)\Microchip\xc8\v2.00\pic\include\mcp19215.h"
   706                           GMCAL2 equ 0197h ;# 
   707  0197                     # 3802 "C:\Program Files (x86)\Microchip\xc8\v2.00\pic\include\mcp19215.h"
   708                           DCSCAL1 equ 0198h ;# 
   709  0198                     # 3822 "C:\Program Files (x86)\Microchip\xc8\v2.00\pic\include\mcp19215.h"
   710                           DACCAL1 equ 0198h ;# 
   711  0198                     # 3848 "C:\Program Files (x86)\Microchip\xc8\v2.00\pic\include\mcp19215.h"
   712                           DCSCAL2 equ 0199h ;# 
   713  0199                     # 3868 "C:\Program Files (x86)\Microchip\xc8\v2.00\pic\include\mcp19215.h"
   714                           DACCAL2 equ 0199h ;# 
   715  0199                     # 3894 "C:\Program Files (x86)\Microchip\xc8\v2.00\pic\include\mcp19215.h"
   716                           ADBT equ 019Ah ;# 
   717  019A                     # 3915 "C:\Program Files (x86)\Microchip\xc8\v2.00\pic\include\mcp19215.h"
   718                           EACAL1 equ 019Ah ;# 
   719  019A                     # 3941 "C:\Program Files (x86)\Microchip\xc8\v2.00\pic\include\mcp19215.h"
   720                           DACBGRCAL equ 019Bh ;# 
   721  019B                     # 3967 "C:\Program Files (x86)\Microchip\xc8\v2.00\pic\include\mcp19215.h"
   722                           PDSCAL equ 019Ch ;# 
   723  019C                     # 3987 "C:\Program Files (x86)\Microchip\xc8\v2.00\pic\include\mcp19215.h"
   724                           VRCAL equ 019Dh ;# 
   725  019D                     # 4007 "C:\Program Files (x86)\Microchip\xc8\v2.00\pic\include\mcp19215.h"
   726                           OSCCAL equ 019Eh ;# 
   727  019E                     # 4027 "C:\Program Files (x86)\Microchip\xc8\v2.00\pic\include\mcp19215.h"
   728                           ATSTCON equ 019Fh ;# 
   729  019F                     # 54 "C:\Program Files (x86)\Microchip\xc8\v2.00\pic\include\mcp19215.h"
   730                           INDF equ 00h ;# 
   731  0000                     # 61 "C:\Program Files (x86)\Microchip\xc8\v2.00\pic\include\mcp19215.h"
   732                           TMR0 equ 01h ;# 
   733  0001                     # 68 "C:\Program Files (x86)\Microchip\xc8\v2.00\pic\include\mcp19215.h"
   734                           PCL equ 02h ;# 
   735  0002                     # 75 "C:\Program Files (x86)\Microchip\xc8\v2.00\pic\include\mcp19215.h"
   736                           STATUS equ 03h ;# 
   737  0003                     # 161 "C:\Program Files (x86)\Microchip\xc8\v2.00\pic\include\mcp19215.h"
   738                           FSR equ 04h ;# 
   739  0004                     # 168 "C:\Program Files (x86)\Microchip\xc8\v2.00\pic\include\mcp19215.h"
   740                           PORTGPA equ 05h ;# 
   741  0005                     # 173 "C:\Program Files (x86)\Microchip\xc8\v2.00\pic\include\mcp19215.h"
   742                           PORTA equ 05h ;# 
   743  0005                     # 460 "C:\Program Files (x86)\Microchip\xc8\v2.00\pic\include\mcp19215.h"
   744                           PORTGPB equ 06h ;# 
   745  0006                     # 465 "C:\Program Files (x86)\Microchip\xc8\v2.00\pic\include\mcp19215.h"
   746                           PORTB equ 06h ;# 
   747  0006                     # 638 "C:\Program Files (x86)\Microchip\xc8\v2.00\pic\include\mcp19215.h"
   748                           PIR1 equ 07h ;# 
   749  0007                     # 700 "C:\Program Files (x86)\Microchip\xc8\v2.00\pic\include\mcp19215.h"
   750                           PIR2 equ 08h ;# 
   751  0008                     # 752 "C:\Program Files (x86)\Microchip\xc8\v2.00\pic\include\mcp19215.h"
   752                           PIR3 equ 09h ;# 
   753  0009                     # 778 "C:\Program Files (x86)\Microchip\xc8\v2.00\pic\include\mcp19215.h"
   754                           PCLATH equ 0Ah ;# 
   755  000A                     # 785 "C:\Program Files (x86)\Microchip\xc8\v2.00\pic\include\mcp19215.h"
   756                           INTCON equ 0Bh ;# 
   757  000B                     # 847 "C:\Program Files (x86)\Microchip\xc8\v2.00\pic\include\mcp19215.h"
   758                           TMR1 equ 0Ch ;# 
   759  000C                     # 854 "C:\Program Files (x86)\Microchip\xc8\v2.00\pic\include\mcp19215.h"
   760                           TMR1L equ 0Ch ;# 
   761  000C                     # 861 "C:\Program Files (x86)\Microchip\xc8\v2.00\pic\include\mcp19215.h"
   762                           TMR1H equ 0Dh ;# 
   763  000D                     # 868 "C:\Program Files (x86)\Microchip\xc8\v2.00\pic\include\mcp19215.h"
   764                           T1CON equ 0Eh ;# 
   765  000E                     # 916 "C:\Program Files (x86)\Microchip\xc8\v2.00\pic\include\mcp19215.h"
   766                           TMR2 equ 0Fh ;# 
   767  000F                     # 923 "C:\Program Files (x86)\Microchip\xc8\v2.00\pic\include\mcp19215.h"
   768                           T2CON equ 010h ;# 
   769  0010                     # 949 "C:\Program Files (x86)\Microchip\xc8\v2.00\pic\include\mcp19215.h"
   770                           PR2 equ 011h ;# 
   771  0011                     # 969 "C:\Program Files (x86)\Microchip\xc8\v2.00\pic\include\mcp19215.h"
   772                           PCON equ 012h ;# 
   773  0012                     # 976 "C:\Program Files (x86)\Microchip\xc8\v2.00\pic\include\mcp19215.h"
   774                           PWM2PHL equ 013h ;# 
   775  0013                     # 996 "C:\Program Files (x86)\Microchip\xc8\v2.00\pic\include\mcp19215.h"
   776                           PWM2PHH equ 014h ;# 
   777  0014                     # 1016 "C:\Program Files (x86)\Microchip\xc8\v2.00\pic\include\mcp19215.h"
   778                           PWM2RL equ 015h ;# 
   779  0015                     # 1036 "C:\Program Files (x86)\Microchip\xc8\v2.00\pic\include\mcp19215.h"
   780                           PWM2RH equ 016h ;# 
   781  0016                     # 1056 "C:\Program Files (x86)\Microchip\xc8\v2.00\pic\include\mcp19215.h"
   782                           PWM1RL equ 017h ;# 
   783  0017                     # 1076 "C:\Program Files (x86)\Microchip\xc8\v2.00\pic\include\mcp19215.h"
   784                           PWM1RH equ 018h ;# 
   785  0018                     # 1096 "C:\Program Files (x86)\Microchip\xc8\v2.00\pic\include\mcp19215.h"
   786                           OSCTUNE equ 01Bh ;# 
   787  001B                     # 1140 "C:\Program Files (x86)\Microchip\xc8\v2.00\pic\include\mcp19215.h"
   788                           ADRES equ 01Ch ;# 
   789  001C                     # 1147 "C:\Program Files (x86)\Microchip\xc8\v2.00\pic\include\mcp19215.h"
   790                           ADRESL equ 01Ch ;# 
   791  001C                     # 1167 "C:\Program Files (x86)\Microchip\xc8\v2.00\pic\include\mcp19215.h"
   792                           ADRESH equ 01Dh ;# 
   793  001D                     # 1187 "C:\Program Files (x86)\Microchip\xc8\v2.00\pic\include\mcp19215.h"
   794                           ADCON0 equ 01Eh ;# 
   795  001E                     # 1258 "C:\Program Files (x86)\Microchip\xc8\v2.00\pic\include\mcp19215.h"
   796                           ADCON1 equ 01Fh ;# 
   797  001F                     # 1300 "C:\Program Files (x86)\Microchip\xc8\v2.00\pic\include\mcp19215.h"
   798                           OPTION_REG equ 081h ;# 
   799  0081                     # 1370 "C:\Program Files (x86)\Microchip\xc8\v2.00\pic\include\mcp19215.h"
   800                           TRISGPA equ 085h ;# 
   801  0085                     # 1375 "C:\Program Files (x86)\Microchip\xc8\v2.00\pic\include\mcp19215.h"
   802                           TRISA equ 085h ;# 
   803  0085                     # 1482 "C:\Program Files (x86)\Microchip\xc8\v2.00\pic\include\mcp19215.h"
   804                           TRISGPB equ 086h ;# 
   805  0086                     # 1487 "C:\Program Files (x86)\Microchip\xc8\v2.00\pic\include\mcp19215.h"
   806                           TRISB equ 086h ;# 
   807  0086                     # 1582 "C:\Program Files (x86)\Microchip\xc8\v2.00\pic\include\mcp19215.h"
   808                           PIE1 equ 087h ;# 
   809  0087                     # 1644 "C:\Program Files (x86)\Microchip\xc8\v2.00\pic\include\mcp19215.h"
   810                           PIE2 equ 088h ;# 
   811  0088                     # 1696 "C:\Program Files (x86)\Microchip\xc8\v2.00\pic\include\mcp19215.h"
   812                           PIE3 equ 089h ;# 
   813  0089                     # 1722 "C:\Program Files (x86)\Microchip\xc8\v2.00\pic\include\mcp19215.h"
   814                           VINUVLO equ 08Ch ;# 
   815  008C                     # 1742 "C:\Program Files (x86)\Microchip\xc8\v2.00\pic\include\mcp19215.h"
   816                           VINOVLO equ 08Dh ;# 
   817  008D                     # 1762 "C:\Program Files (x86)\Microchip\xc8\v2.00\pic\include\mcp19215.h"
   818                           VINCON equ 08Eh ;# 
   819  008E                     # 1824 "C:\Program Files (x86)\Microchip\xc8\v2.00\pic\include\mcp19215.h"
   820                           CREFCON1 equ 08Fh ;# 
   821  008F                     # 1844 "C:\Program Files (x86)\Microchip\xc8\v2.00\pic\include\mcp19215.h"
   822                           CREFCON2 equ 090h ;# 
   823  0090                     # 1864 "C:\Program Files (x86)\Microchip\xc8\v2.00\pic\include\mcp19215.h"
   824                           VREFCON1 equ 091h ;# 
   825  0091                     # 1884 "C:\Program Files (x86)\Microchip\xc8\v2.00\pic\include\mcp19215.h"
   826                           VREFCON2 equ 092h ;# 
   827  0092                     # 1904 "C:\Program Files (x86)\Microchip\xc8\v2.00\pic\include\mcp19215.h"
   828                           CC1RL equ 093h ;# 
   829  0093                     # 1924 "C:\Program Files (x86)\Microchip\xc8\v2.00\pic\include\mcp19215.h"
   830                           CC1RH equ 094h ;# 
   831  0094                     # 1944 "C:\Program Files (x86)\Microchip\xc8\v2.00\pic\include\mcp19215.h"
   832                           CC2RL equ 095h ;# 
   833  0095                     # 1964 "C:\Program Files (x86)\Microchip\xc8\v2.00\pic\include\mcp19215.h"
   834                           CC2RH equ 096h ;# 
   835  0096                     # 1984 "C:\Program Files (x86)\Microchip\xc8\v2.00\pic\include\mcp19215.h"
   836                           CCDCON equ 097h ;# 
   837  0097                     # 2010 "C:\Program Files (x86)\Microchip\xc8\v2.00\pic\include\mcp19215.h"
   838                           VDDCON equ 098h ;# 
   839  0098                     # 2061 "C:\Program Files (x86)\Microchip\xc8\v2.00\pic\include\mcp19215.h"
   840                           LOOPCON1 equ 099h ;# 
   841  0099                     # 2107 "C:\Program Files (x86)\Microchip\xc8\v2.00\pic\include\mcp19215.h"
   842                           LOOPCON2 equ 09Ah ;# 
   843  009A                     # 2153 "C:\Program Files (x86)\Microchip\xc8\v2.00\pic\include\mcp19215.h"
   844                           TTCAL equ 09Bh ;# 
   845  009B                     # 2180 "C:\Program Files (x86)\Microchip\xc8\v2.00\pic\include\mcp19215.h"
   846                           SLPCRCON1 equ 09Ch ;# 
   847  009C                     # 2206 "C:\Program Files (x86)\Microchip\xc8\v2.00\pic\include\mcp19215.h"
   848                           SLPCRCON2 equ 09Dh ;# 
   849  009D                     # 2232 "C:\Program Files (x86)\Microchip\xc8\v2.00\pic\include\mcp19215.h"
   850                           ICOACON equ 09Eh ;# 
   851  009E                     # 2258 "C:\Program Files (x86)\Microchip\xc8\v2.00\pic\include\mcp19215.h"
   852                           ICLEBCON equ 09Fh ;# 
   853  009F                     # 2284 "C:\Program Files (x86)\Microchip\xc8\v2.00\pic\include\mcp19215.h"
   854                           WPUGPA equ 0105h ;# 
   855  0105                     # 2386 "C:\Program Files (x86)\Microchip\xc8\v2.00\pic\include\mcp19215.h"
   856                           WPUGPB equ 0106h ;# 
   857  0106                     # 2476 "C:\Program Files (x86)\Microchip\xc8\v2.00\pic\include\mcp19215.h"
   858                           PE1 equ 0107h ;# 
   859  0107                     # 2527 "C:\Program Files (x86)\Microchip\xc8\v2.00\pic\include\mcp19215.h"
   860                           ABECON1 equ 010Ch ;# 
   861  010C                     # 2598 "C:\Program Files (x86)\Microchip\xc8\v2.00\pic\include\mcp19215.h"
   862                           ABECON2 equ 010Dh ;# 
   863  010D                     # 2632 "C:\Program Files (x86)\Microchip\xc8\v2.00\pic\include\mcp19215.h"
   864                           SSPADD equ 0110h ;# 
   865  0110                     # 2652 "C:\Program Files (x86)\Microchip\xc8\v2.00\pic\include\mcp19215.h"
   866                           SSPBUF equ 0111h ;# 
   867  0111                     # 2672 "C:\Program Files (x86)\Microchip\xc8\v2.00\pic\include\mcp19215.h"
   868                           SSPCON1 equ 0112h ;# 
   869  0112                     # 2742 "C:\Program Files (x86)\Microchip\xc8\v2.00\pic\include\mcp19215.h"
   870                           SSPCON2 equ 0113h ;# 
   871  0113                     # 2804 "C:\Program Files (x86)\Microchip\xc8\v2.00\pic\include\mcp19215.h"
   872                           SSPCON3 equ 0114h ;# 
   873  0114                     # 2866 "C:\Program Files (x86)\Microchip\xc8\v2.00\pic\include\mcp19215.h"
   874                           SSPMSK equ 0115h ;# 
   875  0115                     # 2886 "C:\Program Files (x86)\Microchip\xc8\v2.00\pic\include\mcp19215.h"
   876                           SSPSTAT equ 0116h ;# 
   877  0116                     # 2948 "C:\Program Files (x86)\Microchip\xc8\v2.00\pic\include\mcp19215.h"
   878                           SSPADD2 equ 0117h ;# 
   879  0117                     # 2968 "C:\Program Files (x86)\Microchip\xc8\v2.00\pic\include\mcp19215.h"
   880                           SSPMSK2 equ 0118h ;# 
   881  0118                     # 2988 "C:\Program Files (x86)\Microchip\xc8\v2.00\pic\include\mcp19215.h"
   882                           SPBRG equ 011Bh ;# 
   883  011B                     # 3050 "C:\Program Files (x86)\Microchip\xc8\v2.00\pic\include\mcp19215.h"
   884                           RCREG equ 011Ch ;# 
   885  011C                     # 3070 "C:\Program Files (x86)\Microchip\xc8\v2.00\pic\include\mcp19215.h"
   886                           TXREG equ 011Dh ;# 
   887  011D                     # 3090 "C:\Program Files (x86)\Microchip\xc8\v2.00\pic\include\mcp19215.h"
   888                           TXSTA equ 011Eh ;# 
   889  011E                     # 3147 "C:\Program Files (x86)\Microchip\xc8\v2.00\pic\include\mcp19215.h"
   890                           RCSTA equ 011Fh ;# 
   891  011F                     # 3209 "C:\Program Files (x86)\Microchip\xc8\v2.00\pic\include\mcp19215.h"
   892                           IOCA equ 0185h ;# 
   893  0185                     # 3266 "C:\Program Files (x86)\Microchip\xc8\v2.00\pic\include\mcp19215.h"
   894                           IOCB equ 0186h ;# 
   895  0186                     # 3317 "C:\Program Files (x86)\Microchip\xc8\v2.00\pic\include\mcp19215.h"
   896                           ANSELA equ 0187h ;# 
   897  0187                     # 3355 "C:\Program Files (x86)\Microchip\xc8\v2.00\pic\include\mcp19215.h"
   898                           ANSELB equ 0188h ;# 
   899  0188                     # 3395 "C:\Program Files (x86)\Microchip\xc8\v2.00\pic\include\mcp19215.h"
   900                           PMCON1 equ 0190h ;# 
   901  0190                     # 3434 "C:\Program Files (x86)\Microchip\xc8\v2.00\pic\include\mcp19215.h"
   902                           PMCON2 equ 0191h ;# 
   903  0191                     # 3454 "C:\Program Files (x86)\Microchip\xc8\v2.00\pic\include\mcp19215.h"
   904                           PMADR equ 0192h ;# 
   905  0192                     # 3461 "C:\Program Files (x86)\Microchip\xc8\v2.00\pic\include\mcp19215.h"
   906                           PMADRL equ 0192h ;# 
   907  0192                     # 3531 "C:\Program Files (x86)\Microchip\xc8\v2.00\pic\include\mcp19215.h"
   908                           PMADRH equ 0193h ;# 
   909  0193                     # 3577 "C:\Program Files (x86)\Microchip\xc8\v2.00\pic\include\mcp19215.h"
   910                           PMDAT equ 0194h ;# 
   911  0194                     # 3584 "C:\Program Files (x86)\Microchip\xc8\v2.00\pic\include\mcp19215.h"
   912                           PMDATL equ 0194h ;# 
   913  0194                     # 3654 "C:\Program Files (x86)\Microchip\xc8\v2.00\pic\include\mcp19215.h"
   914                           PMDATH equ 0195h ;# 
   915  0195                     # 3724 "C:\Program Files (x86)\Microchip\xc8\v2.00\pic\include\mcp19215.h"
   916                           GMCAL1 equ 0196h ;# 
   917  0196                     # 3750 "C:\Program Files (x86)\Microchip\xc8\v2.00\pic\include\mcp19215.h"
   918                           EACAL2 equ 0196h ;# 
   919  0196                     # 3776 "C:\Program Files (x86)\Microchip\xc8\v2.00\pic\include\mcp19215.h"
   920                           GMCAL2 equ 0197h ;# 
   921  0197                     # 3802 "C:\Program Files (x86)\Microchip\xc8\v2.00\pic\include\mcp19215.h"
   922                           DCSCAL1 equ 0198h ;# 
   923  0198                     # 3822 "C:\Program Files (x86)\Microchip\xc8\v2.00\pic\include\mcp19215.h"
   924                           DACCAL1 equ 0198h ;# 
   925  0198                     # 3848 "C:\Program Files (x86)\Microchip\xc8\v2.00\pic\include\mcp19215.h"
   926                           DCSCAL2 equ 0199h ;# 
   927  0199                     # 3868 "C:\Program Files (x86)\Microchip\xc8\v2.00\pic\include\mcp19215.h"
   928                           DACCAL2 equ 0199h ;# 
   929  0199                     # 3894 "C:\Program Files (x86)\Microchip\xc8\v2.00\pic\include\mcp19215.h"
   930                           ADBT equ 019Ah ;# 
   931  019A                     # 3915 "C:\Program Files (x86)\Microchip\xc8\v2.00\pic\include\mcp19215.h"
   932                           EACAL1 equ 019Ah ;# 
   933  019A                     # 3941 "C:\Program Files (x86)\Microchip\xc8\v2.00\pic\include\mcp19215.h"
   934                           DACBGRCAL equ 019Bh ;# 
   935  019B                     # 3967 "C:\Program Files (x86)\Microchip\xc8\v2.00\pic\include\mcp19215.h"
   936                           PDSCAL equ 019Ch ;# 
   937  019C                     # 3987 "C:\Program Files (x86)\Microchip\xc8\v2.00\pic\include\mcp19215.h"
   938                           VRCAL equ 019Dh ;# 
   939  019D                     # 4007 "C:\Program Files (x86)\Microchip\xc8\v2.00\pic\include\mcp19215.h"
   940                           OSCCAL equ 019Eh ;# 
   941  019E                     # 4027 "C:\Program Files (x86)\Microchip\xc8\v2.00\pic\include\mcp19215.h"
   942                           ATSTCON equ 019Fh ;# 
   943  019F                     # 54 "C:\Program Files (x86)\Microchip\xc8\v2.00\pic\include\mcp19215.h"
   944                           INDF equ 00h ;# 
   945  0000                     # 61 "C:\Program Files (x86)\Microchip\xc8\v2.00\pic\include\mcp19215.h"
   946                           TMR0 equ 01h ;# 
   947  0001                     # 68 "C:\Program Files (x86)\Microchip\xc8\v2.00\pic\include\mcp19215.h"
   948                           PCL equ 02h ;# 
   949  0002                     # 75 "C:\Program Files (x86)\Microchip\xc8\v2.00\pic\include\mcp19215.h"
   950                           STATUS equ 03h ;# 
   951  0003                     # 161 "C:\Program Files (x86)\Microchip\xc8\v2.00\pic\include\mcp19215.h"
   952                           FSR equ 04h ;# 
   953  0004                     # 168 "C:\Program Files (x86)\Microchip\xc8\v2.00\pic\include\mcp19215.h"
   954                           PORTGPA equ 05h ;# 
   955  0005                     # 173 "C:\Program Files (x86)\Microchip\xc8\v2.00\pic\include\mcp19215.h"
   956                           PORTA equ 05h ;# 
   957  0005                     # 460 "C:\Program Files (x86)\Microchip\xc8\v2.00\pic\include\mcp19215.h"
   958                           PORTGPB equ 06h ;# 
   959  0006                     # 465 "C:\Program Files (x86)\Microchip\xc8\v2.00\pic\include\mcp19215.h"
   960                           PORTB equ 06h ;# 
   961  0006                     # 638 "C:\Program Files (x86)\Microchip\xc8\v2.00\pic\include\mcp19215.h"
   962                           PIR1 equ 07h ;# 
   963  0007                     # 700 "C:\Program Files (x86)\Microchip\xc8\v2.00\pic\include\mcp19215.h"
   964                           PIR2 equ 08h ;# 
   965  0008                     # 752 "C:\Program Files (x86)\Microchip\xc8\v2.00\pic\include\mcp19215.h"
   966                           PIR3 equ 09h ;# 
   967  0009                     # 778 "C:\Program Files (x86)\Microchip\xc8\v2.00\pic\include\mcp19215.h"
   968                           PCLATH equ 0Ah ;# 
   969  000A                     # 785 "C:\Program Files (x86)\Microchip\xc8\v2.00\pic\include\mcp19215.h"
   970                           INTCON equ 0Bh ;# 
   971  000B                     # 847 "C:\Program Files (x86)\Microchip\xc8\v2.00\pic\include\mcp19215.h"
   972                           TMR1 equ 0Ch ;# 
   973  000C                     # 854 "C:\Program Files (x86)\Microchip\xc8\v2.00\pic\include\mcp19215.h"
   974                           TMR1L equ 0Ch ;# 
   975  000C                     # 861 "C:\Program Files (x86)\Microchip\xc8\v2.00\pic\include\mcp19215.h"
   976                           TMR1H equ 0Dh ;# 
   977  000D                     # 868 "C:\Program Files (x86)\Microchip\xc8\v2.00\pic\include\mcp19215.h"
   978                           T1CON equ 0Eh ;# 
   979  000E                     # 916 "C:\Program Files (x86)\Microchip\xc8\v2.00\pic\include\mcp19215.h"
   980                           TMR2 equ 0Fh ;# 
   981  000F                     # 923 "C:\Program Files (x86)\Microchip\xc8\v2.00\pic\include\mcp19215.h"
   982                           T2CON equ 010h ;# 
   983  0010                     # 949 "C:\Program Files (x86)\Microchip\xc8\v2.00\pic\include\mcp19215.h"
   984                           PR2 equ 011h ;# 
   985  0011                     # 969 "C:\Program Files (x86)\Microchip\xc8\v2.00\pic\include\mcp19215.h"
   986                           PCON equ 012h ;# 
   987  0012                     # 976 "C:\Program Files (x86)\Microchip\xc8\v2.00\pic\include\mcp19215.h"
   988                           PWM2PHL equ 013h ;# 
   989  0013                     # 996 "C:\Program Files (x86)\Microchip\xc8\v2.00\pic\include\mcp19215.h"
   990                           PWM2PHH equ 014h ;# 
   991  0014                     # 1016 "C:\Program Files (x86)\Microchip\xc8\v2.00\pic\include\mcp19215.h"
   992                           PWM2RL equ 015h ;# 
   993  0015                     # 1036 "C:\Program Files (x86)\Microchip\xc8\v2.00\pic\include\mcp19215.h"
   994                           PWM2RH equ 016h ;# 
   995  0016                     # 1056 "C:\Program Files (x86)\Microchip\xc8\v2.00\pic\include\mcp19215.h"
   996                           PWM1RL equ 017h ;# 
   997  0017                     # 1076 "C:\Program Files (x86)\Microchip\xc8\v2.00\pic\include\mcp19215.h"
   998                           PWM1RH equ 018h ;# 
   999  0018                     # 1096 "C:\Program Files (x86)\Microchip\xc8\v2.00\pic\include\mcp19215.h"
  1000                           OSCTUNE equ 01Bh ;# 
  1001  001B                     # 1140 "C:\Program Files (x86)\Microchip\xc8\v2.00\pic\include\mcp19215.h"
  1002                           ADRES equ 01Ch ;# 
  1003  001C                     # 1147 "C:\Program Files (x86)\Microchip\xc8\v2.00\pic\include\mcp19215.h"
  1004                           ADRESL equ 01Ch ;# 
  1005  001C                     # 1167 "C:\Program Files (x86)\Microchip\xc8\v2.00\pic\include\mcp19215.h"
  1006                           ADRESH equ 01Dh ;# 
  1007  001D                     # 1187 "C:\Program Files (x86)\Microchip\xc8\v2.00\pic\include\mcp19215.h"
  1008                           ADCON0 equ 01Eh ;# 
  1009  001E                     # 1258 "C:\Program Files (x86)\Microchip\xc8\v2.00\pic\include\mcp19215.h"
  1010                           ADCON1 equ 01Fh ;# 
  1011  001F                     # 1300 "C:\Program Files (x86)\Microchip\xc8\v2.00\pic\include\mcp19215.h"
  1012                           OPTION_REG equ 081h ;# 
  1013  0081                     # 1370 "C:\Program Files (x86)\Microchip\xc8\v2.00\pic\include\mcp19215.h"
  1014                           TRISGPA equ 085h ;# 
  1015  0085                     # 1375 "C:\Program Files (x86)\Microchip\xc8\v2.00\pic\include\mcp19215.h"
  1016                           TRISA equ 085h ;# 
  1017  0085                     # 1482 "C:\Program Files (x86)\Microchip\xc8\v2.00\pic\include\mcp19215.h"
  1018                           TRISGPB equ 086h ;# 
  1019  0086                     # 1487 "C:\Program Files (x86)\Microchip\xc8\v2.00\pic\include\mcp19215.h"
  1020                           TRISB equ 086h ;# 
  1021  0086                     # 1582 "C:\Program Files (x86)\Microchip\xc8\v2.00\pic\include\mcp19215.h"
  1022                           PIE1 equ 087h ;# 
  1023  0087                     # 1644 "C:\Program Files (x86)\Microchip\xc8\v2.00\pic\include\mcp19215.h"
  1024                           PIE2 equ 088h ;# 
  1025  0088                     # 1696 "C:\Program Files (x86)\Microchip\xc8\v2.00\pic\include\mcp19215.h"
  1026                           PIE3 equ 089h ;# 
  1027  0089                     # 1722 "C:\Program Files (x86)\Microchip\xc8\v2.00\pic\include\mcp19215.h"
  1028                           VINUVLO equ 08Ch ;# 
  1029  008C                     # 1742 "C:\Program Files (x86)\Microchip\xc8\v2.00\pic\include\mcp19215.h"
  1030                           VINOVLO equ 08Dh ;# 
  1031  008D                     # 1762 "C:\Program Files (x86)\Microchip\xc8\v2.00\pic\include\mcp19215.h"
  1032                           VINCON equ 08Eh ;# 
  1033  008E                     # 1824 "C:\Program Files (x86)\Microchip\xc8\v2.00\pic\include\mcp19215.h"
  1034                           CREFCON1 equ 08Fh ;# 
  1035  008F                     # 1844 "C:\Program Files (x86)\Microchip\xc8\v2.00\pic\include\mcp19215.h"
  1036                           CREFCON2 equ 090h ;# 
  1037  0090                     # 1864 "C:\Program Files (x86)\Microchip\xc8\v2.00\pic\include\mcp19215.h"
  1038                           VREFCON1 equ 091h ;# 
  1039  0091                     # 1884 "C:\Program Files (x86)\Microchip\xc8\v2.00\pic\include\mcp19215.h"
  1040                           VREFCON2 equ 092h ;# 
  1041  0092                     # 1904 "C:\Program Files (x86)\Microchip\xc8\v2.00\pic\include\mcp19215.h"
  1042                           CC1RL equ 093h ;# 
  1043  0093                     # 1924 "C:\Program Files (x86)\Microchip\xc8\v2.00\pic\include\mcp19215.h"
  1044                           CC1RH equ 094h ;# 
  1045  0094                     # 1944 "C:\Program Files (x86)\Microchip\xc8\v2.00\pic\include\mcp19215.h"
  1046                           CC2RL equ 095h ;# 
  1047  0095                     # 1964 "C:\Program Files (x86)\Microchip\xc8\v2.00\pic\include\mcp19215.h"
  1048                           CC2RH equ 096h ;# 
  1049  0096                     # 1984 "C:\Program Files (x86)\Microchip\xc8\v2.00\pic\include\mcp19215.h"
  1050                           CCDCON equ 097h ;# 
  1051  0097                     # 2010 "C:\Program Files (x86)\Microchip\xc8\v2.00\pic\include\mcp19215.h"
  1052                           VDDCON equ 098h ;# 
  1053  0098                     # 2061 "C:\Program Files (x86)\Microchip\xc8\v2.00\pic\include\mcp19215.h"
  1054                           LOOPCON1 equ 099h ;# 
  1055  0099                     # 2107 "C:\Program Files (x86)\Microchip\xc8\v2.00\pic\include\mcp19215.h"
  1056                           LOOPCON2 equ 09Ah ;# 
  1057  009A                     # 2153 "C:\Program Files (x86)\Microchip\xc8\v2.00\pic\include\mcp19215.h"
  1058                           TTCAL equ 09Bh ;# 
  1059  009B                     # 2180 "C:\Program Files (x86)\Microchip\xc8\v2.00\pic\include\mcp19215.h"
  1060                           SLPCRCON1 equ 09Ch ;# 
  1061  009C                     # 2206 "C:\Program Files (x86)\Microchip\xc8\v2.00\pic\include\mcp19215.h"
  1062                           SLPCRCON2 equ 09Dh ;# 
  1063  009D                     # 2232 "C:\Program Files (x86)\Microchip\xc8\v2.00\pic\include\mcp19215.h"
  1064                           ICOACON equ 09Eh ;# 
  1065  009E                     # 2258 "C:\Program Files (x86)\Microchip\xc8\v2.00\pic\include\mcp19215.h"
  1066                           ICLEBCON equ 09Fh ;# 
  1067  009F                     # 2284 "C:\Program Files (x86)\Microchip\xc8\v2.00\pic\include\mcp19215.h"
  1068                           WPUGPA equ 0105h ;# 
  1069  0105                     # 2386 "C:\Program Files (x86)\Microchip\xc8\v2.00\pic\include\mcp19215.h"
  1070                           WPUGPB equ 0106h ;# 
  1071  0106                     # 2476 "C:\Program Files (x86)\Microchip\xc8\v2.00\pic\include\mcp19215.h"
  1072                           PE1 equ 0107h ;# 
  1073  0107                     # 2527 "C:\Program Files (x86)\Microchip\xc8\v2.00\pic\include\mcp19215.h"
  1074                           ABECON1 equ 010Ch ;# 
  1075  010C                     # 2598 "C:\Program Files (x86)\Microchip\xc8\v2.00\pic\include\mcp19215.h"
  1076                           ABECON2 equ 010Dh ;# 
  1077  010D                     # 2632 "C:\Program Files (x86)\Microchip\xc8\v2.00\pic\include\mcp19215.h"
  1078                           SSPADD equ 0110h ;# 
  1079  0110                     # 2652 "C:\Program Files (x86)\Microchip\xc8\v2.00\pic\include\mcp19215.h"
  1080                           SSPBUF equ 0111h ;# 
  1081  0111                     # 2672 "C:\Program Files (x86)\Microchip\xc8\v2.00\pic\include\mcp19215.h"
  1082                           SSPCON1 equ 0112h ;# 
  1083  0112                     # 2742 "C:\Program Files (x86)\Microchip\xc8\v2.00\pic\include\mcp19215.h"
  1084                           SSPCON2 equ 0113h ;# 
  1085  0113                     # 2804 "C:\Program Files (x86)\Microchip\xc8\v2.00\pic\include\mcp19215.h"
  1086                           SSPCON3 equ 0114h ;# 
  1087  0114                     # 2866 "C:\Program Files (x86)\Microchip\xc8\v2.00\pic\include\mcp19215.h"
  1088                           SSPMSK equ 0115h ;# 
  1089  0115                     # 2886 "C:\Program Files (x86)\Microchip\xc8\v2.00\pic\include\mcp19215.h"
  1090                           SSPSTAT equ 0116h ;# 
  1091  0116                     # 2948 "C:\Program Files (x86)\Microchip\xc8\v2.00\pic\include\mcp19215.h"
  1092                           SSPADD2 equ 0117h ;# 
  1093  0117                     # 2968 "C:\Program Files (x86)\Microchip\xc8\v2.00\pic\include\mcp19215.h"
  1094                           SSPMSK2 equ 0118h ;# 
  1095  0118                     # 2988 "C:\Program Files (x86)\Microchip\xc8\v2.00\pic\include\mcp19215.h"
  1096                           SPBRG equ 011Bh ;# 
  1097  011B                     # 3050 "C:\Program Files (x86)\Microchip\xc8\v2.00\pic\include\mcp19215.h"
  1098                           RCREG equ 011Ch ;# 
  1099  011C                     # 3070 "C:\Program Files (x86)\Microchip\xc8\v2.00\pic\include\mcp19215.h"
  1100                           TXREG equ 011Dh ;# 
  1101  011D                     # 3090 "C:\Program Files (x86)\Microchip\xc8\v2.00\pic\include\mcp19215.h"
  1102                           TXSTA equ 011Eh ;# 
  1103  011E                     # 3147 "C:\Program Files (x86)\Microchip\xc8\v2.00\pic\include\mcp19215.h"
  1104                           RCSTA equ 011Fh ;# 
  1105  011F                     # 3209 "C:\Program Files (x86)\Microchip\xc8\v2.00\pic\include\mcp19215.h"
  1106                           IOCA equ 0185h ;# 
  1107  0185                     # 3266 "C:\Program Files (x86)\Microchip\xc8\v2.00\pic\include\mcp19215.h"
  1108                           IOCB equ 0186h ;# 
  1109  0186                     # 3317 "C:\Program Files (x86)\Microchip\xc8\v2.00\pic\include\mcp19215.h"
  1110                           ANSELA equ 0187h ;# 
  1111  0187                     # 3355 "C:\Program Files (x86)\Microchip\xc8\v2.00\pic\include\mcp19215.h"
  1112                           ANSELB equ 0188h ;# 
  1113  0188                     # 3395 "C:\Program Files (x86)\Microchip\xc8\v2.00\pic\include\mcp19215.h"
  1114                           PMCON1 equ 0190h ;# 
  1115  0190                     # 3434 "C:\Program Files (x86)\Microchip\xc8\v2.00\pic\include\mcp19215.h"
  1116                           PMCON2 equ 0191h ;# 
  1117  0191                     # 3454 "C:\Program Files (x86)\Microchip\xc8\v2.00\pic\include\mcp19215.h"
  1118                           PMADR equ 0192h ;# 
  1119  0192                     # 3461 "C:\Program Files (x86)\Microchip\xc8\v2.00\pic\include\mcp19215.h"
  1120                           PMADRL equ 0192h ;# 
  1121  0192                     # 3531 "C:\Program Files (x86)\Microchip\xc8\v2.00\pic\include\mcp19215.h"
  1122                           PMADRH equ 0193h ;# 
  1123  0193                     # 3577 "C:\Program Files (x86)\Microchip\xc8\v2.00\pic\include\mcp19215.h"
  1124                           PMDAT equ 0194h ;# 
  1125  0194                     # 3584 "C:\Program Files (x86)\Microchip\xc8\v2.00\pic\include\mcp19215.h"
  1126                           PMDATL equ 0194h ;# 
  1127  0194                     # 3654 "C:\Program Files (x86)\Microchip\xc8\v2.00\pic\include\mcp19215.h"
  1128                           PMDATH equ 0195h ;# 
  1129  0195                     # 3724 "C:\Program Files (x86)\Microchip\xc8\v2.00\pic\include\mcp19215.h"
  1130                           GMCAL1 equ 0196h ;# 
  1131  0196                     # 3750 "C:\Program Files (x86)\Microchip\xc8\v2.00\pic\include\mcp19215.h"
  1132                           EACAL2 equ 0196h ;# 
  1133  0196                     # 3776 "C:\Program Files (x86)\Microchip\xc8\v2.00\pic\include\mcp19215.h"
  1134                           GMCAL2 equ 0197h ;# 
  1135  0197                     # 3802 "C:\Program Files (x86)\Microchip\xc8\v2.00\pic\include\mcp19215.h"
  1136                           DCSCAL1 equ 0198h ;# 
  1137  0198                     # 3822 "C:\Program Files (x86)\Microchip\xc8\v2.00\pic\include\mcp19215.h"
  1138                           DACCAL1 equ 0198h ;# 
  1139  0198                     # 3848 "C:\Program Files (x86)\Microchip\xc8\v2.00\pic\include\mcp19215.h"
  1140                           DCSCAL2 equ 0199h ;# 
  1141  0199                     # 3868 "C:\Program Files (x86)\Microchip\xc8\v2.00\pic\include\mcp19215.h"
  1142                           DACCAL2 equ 0199h ;# 
  1143  0199                     # 3894 "C:\Program Files (x86)\Microchip\xc8\v2.00\pic\include\mcp19215.h"
  1144                           ADBT equ 019Ah ;# 
  1145  019A                     # 3915 "C:\Program Files (x86)\Microchip\xc8\v2.00\pic\include\mcp19215.h"
  1146                           EACAL1 equ 019Ah ;# 
  1147  019A                     # 3941 "C:\Program Files (x86)\Microchip\xc8\v2.00\pic\include\mcp19215.h"
  1148                           DACBGRCAL equ 019Bh ;# 
  1149  019B                     # 3967 "C:\Program Files (x86)\Microchip\xc8\v2.00\pic\include\mcp19215.h"
  1150                           PDSCAL equ 019Ch ;# 
  1151  019C                     # 3987 "C:\Program Files (x86)\Microchip\xc8\v2.00\pic\include\mcp19215.h"
  1152                           VRCAL equ 019Dh ;# 
  1153  019D                     # 4007 "C:\Program Files (x86)\Microchip\xc8\v2.00\pic\include\mcp19215.h"
  1154                           OSCCAL equ 019Eh ;# 
  1155  019E                     # 4027 "C:\Program Files (x86)\Microchip\xc8\v2.00\pic\include\mcp19215.h"
  1156                           ATSTCON equ 019Fh ;# 
  1157  019F                     # 54 "C:\Program Files (x86)\Microchip\xc8\v2.00\pic\include\mcp19215.h"
  1158                           INDF equ 00h ;# 
  1159  0000                     # 61 "C:\Program Files (x86)\Microchip\xc8\v2.00\pic\include\mcp19215.h"
  1160                           TMR0 equ 01h ;# 
  1161  0001                     # 68 "C:\Program Files (x86)\Microchip\xc8\v2.00\pic\include\mcp19215.h"
  1162                           PCL equ 02h ;# 
  1163  0002                     # 75 "C:\Program Files (x86)\Microchip\xc8\v2.00\pic\include\mcp19215.h"
  1164                           STATUS equ 03h ;# 
  1165  0003                     # 161 "C:\Program Files (x86)\Microchip\xc8\v2.00\pic\include\mcp19215.h"
  1166                           FSR equ 04h ;# 
  1167  0004                     # 168 "C:\Program Files (x86)\Microchip\xc8\v2.00\pic\include\mcp19215.h"
  1168                           PORTGPA equ 05h ;# 
  1169  0005                     # 173 "C:\Program Files (x86)\Microchip\xc8\v2.00\pic\include\mcp19215.h"
  1170                           PORTA equ 05h ;# 
  1171  0005                     # 460 "C:\Program Files (x86)\Microchip\xc8\v2.00\pic\include\mcp19215.h"
  1172                           PORTGPB equ 06h ;# 
  1173  0006                     # 465 "C:\Program Files (x86)\Microchip\xc8\v2.00\pic\include\mcp19215.h"
  1174                           PORTB equ 06h ;# 
  1175  0006                     # 638 "C:\Program Files (x86)\Microchip\xc8\v2.00\pic\include\mcp19215.h"
  1176                           PIR1 equ 07h ;# 
  1177  0007                     # 700 "C:\Program Files (x86)\Microchip\xc8\v2.00\pic\include\mcp19215.h"
  1178                           PIR2 equ 08h ;# 
  1179  0008                     # 752 "C:\Program Files (x86)\Microchip\xc8\v2.00\pic\include\mcp19215.h"
  1180                           PIR3 equ 09h ;# 
  1181  0009                     # 778 "C:\Program Files (x86)\Microchip\xc8\v2.00\pic\include\mcp19215.h"
  1182                           PCLATH equ 0Ah ;# 
  1183  000A                     # 785 "C:\Program Files (x86)\Microchip\xc8\v2.00\pic\include\mcp19215.h"
  1184                           INTCON equ 0Bh ;# 
  1185  000B                     # 847 "C:\Program Files (x86)\Microchip\xc8\v2.00\pic\include\mcp19215.h"
  1186                           TMR1 equ 0Ch ;# 
  1187  000C                     # 854 "C:\Program Files (x86)\Microchip\xc8\v2.00\pic\include\mcp19215.h"
  1188                           TMR1L equ 0Ch ;# 
  1189  000C                     # 861 "C:\Program Files (x86)\Microchip\xc8\v2.00\pic\include\mcp19215.h"
  1190                           TMR1H equ 0Dh ;# 
  1191  000D                     # 868 "C:\Program Files (x86)\Microchip\xc8\v2.00\pic\include\mcp19215.h"
  1192                           T1CON equ 0Eh ;# 
  1193  000E                     # 916 "C:\Program Files (x86)\Microchip\xc8\v2.00\pic\include\mcp19215.h"
  1194                           TMR2 equ 0Fh ;# 
  1195  000F                     # 923 "C:\Program Files (x86)\Microchip\xc8\v2.00\pic\include\mcp19215.h"
  1196                           T2CON equ 010h ;# 
  1197  0010                     # 949 "C:\Program Files (x86)\Microchip\xc8\v2.00\pic\include\mcp19215.h"
  1198                           PR2 equ 011h ;# 
  1199  0011                     # 969 "C:\Program Files (x86)\Microchip\xc8\v2.00\pic\include\mcp19215.h"
  1200                           PCON equ 012h ;# 
  1201  0012                     # 976 "C:\Program Files (x86)\Microchip\xc8\v2.00\pic\include\mcp19215.h"
  1202                           PWM2PHL equ 013h ;# 
  1203  0013                     # 996 "C:\Program Files (x86)\Microchip\xc8\v2.00\pic\include\mcp19215.h"
  1204                           PWM2PHH equ 014h ;# 
  1205  0014                     # 1016 "C:\Program Files (x86)\Microchip\xc8\v2.00\pic\include\mcp19215.h"
  1206                           PWM2RL equ 015h ;# 
  1207  0015                     # 1036 "C:\Program Files (x86)\Microchip\xc8\v2.00\pic\include\mcp19215.h"
  1208                           PWM2RH equ 016h ;# 
  1209  0016                     # 1056 "C:\Program Files (x86)\Microchip\xc8\v2.00\pic\include\mcp19215.h"
  1210                           PWM1RL equ 017h ;# 
  1211  0017                     # 1076 "C:\Program Files (x86)\Microchip\xc8\v2.00\pic\include\mcp19215.h"
  1212                           PWM1RH equ 018h ;# 
  1213  0018                     # 1096 "C:\Program Files (x86)\Microchip\xc8\v2.00\pic\include\mcp19215.h"
  1214                           OSCTUNE equ 01Bh ;# 
  1215  001B                     # 1140 "C:\Program Files (x86)\Microchip\xc8\v2.00\pic\include\mcp19215.h"
  1216                           ADRES equ 01Ch ;# 
  1217  001C                     # 1147 "C:\Program Files (x86)\Microchip\xc8\v2.00\pic\include\mcp19215.h"
  1218                           ADRESL equ 01Ch ;# 
  1219  001C                     # 1167 "C:\Program Files (x86)\Microchip\xc8\v2.00\pic\include\mcp19215.h"
  1220                           ADRESH equ 01Dh ;# 
  1221  001D                     # 1187 "C:\Program Files (x86)\Microchip\xc8\v2.00\pic\include\mcp19215.h"
  1222                           ADCON0 equ 01Eh ;# 
  1223  001E                     # 1258 "C:\Program Files (x86)\Microchip\xc8\v2.00\pic\include\mcp19215.h"
  1224                           ADCON1 equ 01Fh ;# 
  1225  001F                     # 1300 "C:\Program Files (x86)\Microchip\xc8\v2.00\pic\include\mcp19215.h"
  1226                           OPTION_REG equ 081h ;# 
  1227  0081                     # 1370 "C:\Program Files (x86)\Microchip\xc8\v2.00\pic\include\mcp19215.h"
  1228                           TRISGPA equ 085h ;# 
  1229  0085                     # 1375 "C:\Program Files (x86)\Microchip\xc8\v2.00\pic\include\mcp19215.h"
  1230                           TRISA equ 085h ;# 
  1231  0085                     # 1482 "C:\Program Files (x86)\Microchip\xc8\v2.00\pic\include\mcp19215.h"
  1232                           TRISGPB equ 086h ;# 
  1233  0086                     # 1487 "C:\Program Files (x86)\Microchip\xc8\v2.00\pic\include\mcp19215.h"
  1234                           TRISB equ 086h ;# 
  1235  0086                     # 1582 "C:\Program Files (x86)\Microchip\xc8\v2.00\pic\include\mcp19215.h"
  1236                           PIE1 equ 087h ;# 
  1237  0087                     # 1644 "C:\Program Files (x86)\Microchip\xc8\v2.00\pic\include\mcp19215.h"
  1238                           PIE2 equ 088h ;# 
  1239  0088                     # 1696 "C:\Program Files (x86)\Microchip\xc8\v2.00\pic\include\mcp19215.h"
  1240                           PIE3 equ 089h ;# 
  1241  0089                     # 1722 "C:\Program Files (x86)\Microchip\xc8\v2.00\pic\include\mcp19215.h"
  1242                           VINUVLO equ 08Ch ;# 
  1243  008C                     # 1742 "C:\Program Files (x86)\Microchip\xc8\v2.00\pic\include\mcp19215.h"
  1244                           VINOVLO equ 08Dh ;# 
  1245  008D                     # 1762 "C:\Program Files (x86)\Microchip\xc8\v2.00\pic\include\mcp19215.h"
  1246                           VINCON equ 08Eh ;# 
  1247  008E                     # 1824 "C:\Program Files (x86)\Microchip\xc8\v2.00\pic\include\mcp19215.h"
  1248                           CREFCON1 equ 08Fh ;# 
  1249  008F                     # 1844 "C:\Program Files (x86)\Microchip\xc8\v2.00\pic\include\mcp19215.h"
  1250                           CREFCON2 equ 090h ;# 
  1251  0090                     # 1864 "C:\Program Files (x86)\Microchip\xc8\v2.00\pic\include\mcp19215.h"
  1252                           VREFCON1 equ 091h ;# 
  1253  0091                     # 1884 "C:\Program Files (x86)\Microchip\xc8\v2.00\pic\include\mcp19215.h"
  1254                           VREFCON2 equ 092h ;# 
  1255  0092                     # 1904 "C:\Program Files (x86)\Microchip\xc8\v2.00\pic\include\mcp19215.h"
  1256                           CC1RL equ 093h ;# 
  1257  0093                     # 1924 "C:\Program Files (x86)\Microchip\xc8\v2.00\pic\include\mcp19215.h"
  1258                           CC1RH equ 094h ;# 
  1259  0094                     # 1944 "C:\Program Files (x86)\Microchip\xc8\v2.00\pic\include\mcp19215.h"
  1260                           CC2RL equ 095h ;# 
  1261  0095                     # 1964 "C:\Program Files (x86)\Microchip\xc8\v2.00\pic\include\mcp19215.h"
  1262                           CC2RH equ 096h ;# 
  1263  0096                     # 1984 "C:\Program Files (x86)\Microchip\xc8\v2.00\pic\include\mcp19215.h"
  1264                           CCDCON equ 097h ;# 
  1265  0097                     # 2010 "C:\Program Files (x86)\Microchip\xc8\v2.00\pic\include\mcp19215.h"
  1266                           VDDCON equ 098h ;# 
  1267  0098                     # 2061 "C:\Program Files (x86)\Microchip\xc8\v2.00\pic\include\mcp19215.h"
  1268                           LOOPCON1 equ 099h ;# 
  1269  0099                     # 2107 "C:\Program Files (x86)\Microchip\xc8\v2.00\pic\include\mcp19215.h"
  1270                           LOOPCON2 equ 09Ah ;# 
  1271  009A                     # 2153 "C:\Program Files (x86)\Microchip\xc8\v2.00\pic\include\mcp19215.h"
  1272                           TTCAL equ 09Bh ;# 
  1273  009B                     # 2180 "C:\Program Files (x86)\Microchip\xc8\v2.00\pic\include\mcp19215.h"
  1274                           SLPCRCON1 equ 09Ch ;# 
  1275  009C                     # 2206 "C:\Program Files (x86)\Microchip\xc8\v2.00\pic\include\mcp19215.h"
  1276                           SLPCRCON2 equ 09Dh ;# 
  1277  009D                     # 2232 "C:\Program Files (x86)\Microchip\xc8\v2.00\pic\include\mcp19215.h"
  1278                           ICOACON equ 09Eh ;# 
  1279  009E                     # 2258 "C:\Program Files (x86)\Microchip\xc8\v2.00\pic\include\mcp19215.h"
  1280                           ICLEBCON equ 09Fh ;# 
  1281  009F                     # 2284 "C:\Program Files (x86)\Microchip\xc8\v2.00\pic\include\mcp19215.h"
  1282                           WPUGPA equ 0105h ;# 
  1283  0105                     # 2386 "C:\Program Files (x86)\Microchip\xc8\v2.00\pic\include\mcp19215.h"
  1284                           WPUGPB equ 0106h ;# 
  1285  0106                     # 2476 "C:\Program Files (x86)\Microchip\xc8\v2.00\pic\include\mcp19215.h"
  1286                           PE1 equ 0107h ;# 
  1287  0107                     # 2527 "C:\Program Files (x86)\Microchip\xc8\v2.00\pic\include\mcp19215.h"
  1288                           ABECON1 equ 010Ch ;# 
  1289  010C                     # 2598 "C:\Program Files (x86)\Microchip\xc8\v2.00\pic\include\mcp19215.h"
  1290                           ABECON2 equ 010Dh ;# 
  1291  010D                     # 2632 "C:\Program Files (x86)\Microchip\xc8\v2.00\pic\include\mcp19215.h"
  1292                           SSPADD equ 0110h ;# 
  1293  0110                     # 2652 "C:\Program Files (x86)\Microchip\xc8\v2.00\pic\include\mcp19215.h"
  1294                           SSPBUF equ 0111h ;# 
  1295  0111                     # 2672 "C:\Program Files (x86)\Microchip\xc8\v2.00\pic\include\mcp19215.h"
  1296                           SSPCON1 equ 0112h ;# 
  1297  0112                     # 2742 "C:\Program Files (x86)\Microchip\xc8\v2.00\pic\include\mcp19215.h"
  1298                           SSPCON2 equ 0113h ;# 
  1299  0113                     # 2804 "C:\Program Files (x86)\Microchip\xc8\v2.00\pic\include\mcp19215.h"
  1300                           SSPCON3 equ 0114h ;# 
  1301  0114                     # 2866 "C:\Program Files (x86)\Microchip\xc8\v2.00\pic\include\mcp19215.h"
  1302                           SSPMSK equ 0115h ;# 
  1303  0115                     # 2886 "C:\Program Files (x86)\Microchip\xc8\v2.00\pic\include\mcp19215.h"
  1304                           SSPSTAT equ 0116h ;# 
  1305  0116                     # 2948 "C:\Program Files (x86)\Microchip\xc8\v2.00\pic\include\mcp19215.h"
  1306                           SSPADD2 equ 0117h ;# 
  1307  0117                     # 2968 "C:\Program Files (x86)\Microchip\xc8\v2.00\pic\include\mcp19215.h"
  1308                           SSPMSK2 equ 0118h ;# 
  1309  0118                     # 2988 "C:\Program Files (x86)\Microchip\xc8\v2.00\pic\include\mcp19215.h"
  1310                           SPBRG equ 011Bh ;# 
  1311  011B                     # 3050 "C:\Program Files (x86)\Microchip\xc8\v2.00\pic\include\mcp19215.h"
  1312                           RCREG equ 011Ch ;# 
  1313  011C                     # 3070 "C:\Program Files (x86)\Microchip\xc8\v2.00\pic\include\mcp19215.h"
  1314                           TXREG equ 011Dh ;# 
  1315  011D                     # 3090 "C:\Program Files (x86)\Microchip\xc8\v2.00\pic\include\mcp19215.h"
  1316                           TXSTA equ 011Eh ;# 
  1317  011E                     # 3147 "C:\Program Files (x86)\Microchip\xc8\v2.00\pic\include\mcp19215.h"
  1318                           RCSTA equ 011Fh ;# 
  1319  011F                     # 3209 "C:\Program Files (x86)\Microchip\xc8\v2.00\pic\include\mcp19215.h"
  1320                           IOCA equ 0185h ;# 
  1321  0185                     # 3266 "C:\Program Files (x86)\Microchip\xc8\v2.00\pic\include\mcp19215.h"
  1322                           IOCB equ 0186h ;# 
  1323  0186                     # 3317 "C:\Program Files (x86)\Microchip\xc8\v2.00\pic\include\mcp19215.h"
  1324                           ANSELA equ 0187h ;# 
  1325  0187                     # 3355 "C:\Program Files (x86)\Microchip\xc8\v2.00\pic\include\mcp19215.h"
  1326                           ANSELB equ 0188h ;# 
  1327  0188                     # 3395 "C:\Program Files (x86)\Microchip\xc8\v2.00\pic\include\mcp19215.h"
  1328                           PMCON1 equ 0190h ;# 
  1329  0190                     # 3434 "C:\Program Files (x86)\Microchip\xc8\v2.00\pic\include\mcp19215.h"
  1330                           PMCON2 equ 0191h ;# 
  1331  0191                     # 3454 "C:\Program Files (x86)\Microchip\xc8\v2.00\pic\include\mcp19215.h"
  1332                           PMADR equ 0192h ;# 
  1333  0192                     # 3461 "C:\Program Files (x86)\Microchip\xc8\v2.00\pic\include\mcp19215.h"
  1334                           PMADRL equ 0192h ;# 
  1335  0192                     # 3531 "C:\Program Files (x86)\Microchip\xc8\v2.00\pic\include\mcp19215.h"
  1336                           PMADRH equ 0193h ;# 
  1337  0193                     # 3577 "C:\Program Files (x86)\Microchip\xc8\v2.00\pic\include\mcp19215.h"
  1338                           PMDAT equ 0194h ;# 
  1339  0194                     # 3584 "C:\Program Files (x86)\Microchip\xc8\v2.00\pic\include\mcp19215.h"
  1340                           PMDATL equ 0194h ;# 
  1341  0194                     # 3654 "C:\Program Files (x86)\Microchip\xc8\v2.00\pic\include\mcp19215.h"
  1342                           PMDATH equ 0195h ;# 
  1343  0195                     # 3724 "C:\Program Files (x86)\Microchip\xc8\v2.00\pic\include\mcp19215.h"
  1344                           GMCAL1 equ 0196h ;# 
  1345  0196                     # 3750 "C:\Program Files (x86)\Microchip\xc8\v2.00\pic\include\mcp19215.h"
  1346                           EACAL2 equ 0196h ;# 
  1347  0196                     # 3776 "C:\Program Files (x86)\Microchip\xc8\v2.00\pic\include\mcp19215.h"
  1348                           GMCAL2 equ 0197h ;# 
  1349  0197                     # 3802 "C:\Program Files (x86)\Microchip\xc8\v2.00\pic\include\mcp19215.h"
  1350                           DCSCAL1 equ 0198h ;# 
  1351  0198                     # 3822 "C:\Program Files (x86)\Microchip\xc8\v2.00\pic\include\mcp19215.h"
  1352                           DACCAL1 equ 0198h ;# 
  1353  0198                     # 3848 "C:\Program Files (x86)\Microchip\xc8\v2.00\pic\include\mcp19215.h"
  1354                           DCSCAL2 equ 0199h ;# 
  1355  0199                     # 3868 "C:\Program Files (x86)\Microchip\xc8\v2.00\pic\include\mcp19215.h"
  1356                           DACCAL2 equ 0199h ;# 
  1357  0199                     # 3894 "C:\Program Files (x86)\Microchip\xc8\v2.00\pic\include\mcp19215.h"
  1358                           ADBT equ 019Ah ;# 
  1359  019A                     # 3915 "C:\Program Files (x86)\Microchip\xc8\v2.00\pic\include\mcp19215.h"
  1360                           EACAL1 equ 019Ah ;# 
  1361  019A                     # 3941 "C:\Program Files (x86)\Microchip\xc8\v2.00\pic\include\mcp19215.h"
  1362                           DACBGRCAL equ 019Bh ;# 
  1363  019B                     # 3967 "C:\Program Files (x86)\Microchip\xc8\v2.00\pic\include\mcp19215.h"
  1364                           PDSCAL equ 019Ch ;# 
  1365  019C                     # 3987 "C:\Program Files (x86)\Microchip\xc8\v2.00\pic\include\mcp19215.h"
  1366                           VRCAL equ 019Dh ;# 
  1367  019D                     # 4007 "C:\Program Files (x86)\Microchip\xc8\v2.00\pic\include\mcp19215.h"
  1368                           OSCCAL equ 019Eh ;# 
  1369  019E                     # 4027 "C:\Program Files (x86)\Microchip\xc8\v2.00\pic\include\mcp19215.h"
  1370                           ATSTCON equ 019Fh ;# 
  1371  019F                     # 54 "C:\Program Files (x86)\Microchip\xc8\v2.00\pic\include\mcp19215.h"
  1372                           INDF equ 00h ;# 
  1373  0000                     # 61 "C:\Program Files (x86)\Microchip\xc8\v2.00\pic\include\mcp19215.h"
  1374                           TMR0 equ 01h ;# 
  1375  0001                     # 68 "C:\Program Files (x86)\Microchip\xc8\v2.00\pic\include\mcp19215.h"
  1376                           PCL equ 02h ;# 
  1377  0002                     # 75 "C:\Program Files (x86)\Microchip\xc8\v2.00\pic\include\mcp19215.h"
  1378                           STATUS equ 03h ;# 
  1379  0003                     # 161 "C:\Program Files (x86)\Microchip\xc8\v2.00\pic\include\mcp19215.h"
  1380                           FSR equ 04h ;# 
  1381  0004                     # 168 "C:\Program Files (x86)\Microchip\xc8\v2.00\pic\include\mcp19215.h"
  1382                           PORTGPA equ 05h ;# 
  1383  0005                     # 173 "C:\Program Files (x86)\Microchip\xc8\v2.00\pic\include\mcp19215.h"
  1384                           PORTA equ 05h ;# 
  1385  0005                     # 460 "C:\Program Files (x86)\Microchip\xc8\v2.00\pic\include\mcp19215.h"
  1386                           PORTGPB equ 06h ;# 
  1387  0006                     # 465 "C:\Program Files (x86)\Microchip\xc8\v2.00\pic\include\mcp19215.h"
  1388                           PORTB equ 06h ;# 
  1389  0006                     # 638 "C:\Program Files (x86)\Microchip\xc8\v2.00\pic\include\mcp19215.h"
  1390                           PIR1 equ 07h ;# 
  1391  0007                     # 700 "C:\Program Files (x86)\Microchip\xc8\v2.00\pic\include\mcp19215.h"
  1392                           PIR2 equ 08h ;# 
  1393  0008                     # 752 "C:\Program Files (x86)\Microchip\xc8\v2.00\pic\include\mcp19215.h"
  1394                           PIR3 equ 09h ;# 
  1395  0009                     # 778 "C:\Program Files (x86)\Microchip\xc8\v2.00\pic\include\mcp19215.h"
  1396                           PCLATH equ 0Ah ;# 
  1397  000A                     # 785 "C:\Program Files (x86)\Microchip\xc8\v2.00\pic\include\mcp19215.h"
  1398                           INTCON equ 0Bh ;# 
  1399  000B                     # 847 "C:\Program Files (x86)\Microchip\xc8\v2.00\pic\include\mcp19215.h"
  1400                           TMR1 equ 0Ch ;# 
  1401  000C                     # 854 "C:\Program Files (x86)\Microchip\xc8\v2.00\pic\include\mcp19215.h"
  1402                           TMR1L equ 0Ch ;# 
  1403  000C                     # 861 "C:\Program Files (x86)\Microchip\xc8\v2.00\pic\include\mcp19215.h"
  1404                           TMR1H equ 0Dh ;# 
  1405  000D                     # 868 "C:\Program Files (x86)\Microchip\xc8\v2.00\pic\include\mcp19215.h"
  1406                           T1CON equ 0Eh ;# 
  1407  000E                     # 916 "C:\Program Files (x86)\Microchip\xc8\v2.00\pic\include\mcp19215.h"
  1408                           TMR2 equ 0Fh ;# 
  1409  000F                     # 923 "C:\Program Files (x86)\Microchip\xc8\v2.00\pic\include\mcp19215.h"
  1410                           T2CON equ 010h ;# 
  1411  0010                     # 949 "C:\Program Files (x86)\Microchip\xc8\v2.00\pic\include\mcp19215.h"
  1412                           PR2 equ 011h ;# 
  1413  0011                     # 969 "C:\Program Files (x86)\Microchip\xc8\v2.00\pic\include\mcp19215.h"
  1414                           PCON equ 012h ;# 
  1415  0012                     # 976 "C:\Program Files (x86)\Microchip\xc8\v2.00\pic\include\mcp19215.h"
  1416                           PWM2PHL equ 013h ;# 
  1417  0013                     # 996 "C:\Program Files (x86)\Microchip\xc8\v2.00\pic\include\mcp19215.h"
  1418                           PWM2PHH equ 014h ;# 
  1419  0014                     # 1016 "C:\Program Files (x86)\Microchip\xc8\v2.00\pic\include\mcp19215.h"
  1420                           PWM2RL equ 015h ;# 
  1421  0015                     # 1036 "C:\Program Files (x86)\Microchip\xc8\v2.00\pic\include\mcp19215.h"
  1422                           PWM2RH equ 016h ;# 
  1423  0016                     # 1056 "C:\Program Files (x86)\Microchip\xc8\v2.00\pic\include\mcp19215.h"
  1424                           PWM1RL equ 017h ;# 
  1425  0017                     # 1076 "C:\Program Files (x86)\Microchip\xc8\v2.00\pic\include\mcp19215.h"
  1426                           PWM1RH equ 018h ;# 
  1427  0018                     # 1096 "C:\Program Files (x86)\Microchip\xc8\v2.00\pic\include\mcp19215.h"
  1428                           OSCTUNE equ 01Bh ;# 
  1429  001B                     # 1140 "C:\Program Files (x86)\Microchip\xc8\v2.00\pic\include\mcp19215.h"
  1430                           ADRES equ 01Ch ;# 
  1431  001C                     # 1147 "C:\Program Files (x86)\Microchip\xc8\v2.00\pic\include\mcp19215.h"
  1432                           ADRESL equ 01Ch ;# 
  1433  001C                     # 1167 "C:\Program Files (x86)\Microchip\xc8\v2.00\pic\include\mcp19215.h"
  1434                           ADRESH equ 01Dh ;# 
  1435  001D                     # 1187 "C:\Program Files (x86)\Microchip\xc8\v2.00\pic\include\mcp19215.h"
  1436                           ADCON0 equ 01Eh ;# 
  1437  001E                     # 1258 "C:\Program Files (x86)\Microchip\xc8\v2.00\pic\include\mcp19215.h"
  1438                           ADCON1 equ 01Fh ;# 
  1439  001F                     # 1300 "C:\Program Files (x86)\Microchip\xc8\v2.00\pic\include\mcp19215.h"
  1440                           OPTION_REG equ 081h ;# 
  1441  0081                     # 1370 "C:\Program Files (x86)\Microchip\xc8\v2.00\pic\include\mcp19215.h"
  1442                           TRISGPA equ 085h ;# 
  1443  0085                     # 1375 "C:\Program Files (x86)\Microchip\xc8\v2.00\pic\include\mcp19215.h"
  1444                           TRISA equ 085h ;# 
  1445  0085                     # 1482 "C:\Program Files (x86)\Microchip\xc8\v2.00\pic\include\mcp19215.h"
  1446                           TRISGPB equ 086h ;# 
  1447  0086                     # 1487 "C:\Program Files (x86)\Microchip\xc8\v2.00\pic\include\mcp19215.h"
  1448                           TRISB equ 086h ;# 
  1449  0086                     # 1582 "C:\Program Files (x86)\Microchip\xc8\v2.00\pic\include\mcp19215.h"
  1450                           PIE1 equ 087h ;# 
  1451  0087                     # 1644 "C:\Program Files (x86)\Microchip\xc8\v2.00\pic\include\mcp19215.h"
  1452                           PIE2 equ 088h ;# 
  1453  0088                     # 1696 "C:\Program Files (x86)\Microchip\xc8\v2.00\pic\include\mcp19215.h"
  1454                           PIE3 equ 089h ;# 
  1455  0089                     # 1722 "C:\Program Files (x86)\Microchip\xc8\v2.00\pic\include\mcp19215.h"
  1456                           VINUVLO equ 08Ch ;# 
  1457  008C                     # 1742 "C:\Program Files (x86)\Microchip\xc8\v2.00\pic\include\mcp19215.h"
  1458                           VINOVLO equ 08Dh ;# 
  1459  008D                     # 1762 "C:\Program Files (x86)\Microchip\xc8\v2.00\pic\include\mcp19215.h"
  1460                           VINCON equ 08Eh ;# 
  1461  008E                     # 1824 "C:\Program Files (x86)\Microchip\xc8\v2.00\pic\include\mcp19215.h"
  1462                           CREFCON1 equ 08Fh ;# 
  1463  008F                     # 1844 "C:\Program Files (x86)\Microchip\xc8\v2.00\pic\include\mcp19215.h"
  1464                           CREFCON2 equ 090h ;# 
  1465  0090                     # 1864 "C:\Program Files (x86)\Microchip\xc8\v2.00\pic\include\mcp19215.h"
  1466                           VREFCON1 equ 091h ;# 
  1467  0091                     # 1884 "C:\Program Files (x86)\Microchip\xc8\v2.00\pic\include\mcp19215.h"
  1468                           VREFCON2 equ 092h ;# 
  1469  0092                     # 1904 "C:\Program Files (x86)\Microchip\xc8\v2.00\pic\include\mcp19215.h"
  1470                           CC1RL equ 093h ;# 
  1471  0093                     # 1924 "C:\Program Files (x86)\Microchip\xc8\v2.00\pic\include\mcp19215.h"
  1472                           CC1RH equ 094h ;# 
  1473  0094                     # 1944 "C:\Program Files (x86)\Microchip\xc8\v2.00\pic\include\mcp19215.h"
  1474                           CC2RL equ 095h ;# 
  1475  0095                     # 1964 "C:\Program Files (x86)\Microchip\xc8\v2.00\pic\include\mcp19215.h"
  1476                           CC2RH equ 096h ;# 
  1477  0096                     # 1984 "C:\Program Files (x86)\Microchip\xc8\v2.00\pic\include\mcp19215.h"
  1478                           CCDCON equ 097h ;# 
  1479  0097                     # 2010 "C:\Program Files (x86)\Microchip\xc8\v2.00\pic\include\mcp19215.h"
  1480                           VDDCON equ 098h ;# 
  1481  0098                     # 2061 "C:\Program Files (x86)\Microchip\xc8\v2.00\pic\include\mcp19215.h"
  1482                           LOOPCON1 equ 099h ;# 
  1483  0099                     # 2107 "C:\Program Files (x86)\Microchip\xc8\v2.00\pic\include\mcp19215.h"
  1484                           LOOPCON2 equ 09Ah ;# 
  1485  009A                     # 2153 "C:\Program Files (x86)\Microchip\xc8\v2.00\pic\include\mcp19215.h"
  1486                           TTCAL equ 09Bh ;# 
  1487  009B                     # 2180 "C:\Program Files (x86)\Microchip\xc8\v2.00\pic\include\mcp19215.h"
  1488                           SLPCRCON1 equ 09Ch ;# 
  1489  009C                     # 2206 "C:\Program Files (x86)\Microchip\xc8\v2.00\pic\include\mcp19215.h"
  1490                           SLPCRCON2 equ 09Dh ;# 
  1491  009D                     # 2232 "C:\Program Files (x86)\Microchip\xc8\v2.00\pic\include\mcp19215.h"
  1492                           ICOACON equ 09Eh ;# 
  1493  009E                     # 2258 "C:\Program Files (x86)\Microchip\xc8\v2.00\pic\include\mcp19215.h"
  1494                           ICLEBCON equ 09Fh ;# 
  1495  009F                     # 2284 "C:\Program Files (x86)\Microchip\xc8\v2.00\pic\include\mcp19215.h"
  1496                           WPUGPA equ 0105h ;# 
  1497  0105                     # 2386 "C:\Program Files (x86)\Microchip\xc8\v2.00\pic\include\mcp19215.h"
  1498                           WPUGPB equ 0106h ;# 
  1499  0106                     # 2476 "C:\Program Files (x86)\Microchip\xc8\v2.00\pic\include\mcp19215.h"
  1500                           PE1 equ 0107h ;# 
  1501  0107                     # 2527 "C:\Program Files (x86)\Microchip\xc8\v2.00\pic\include\mcp19215.h"
  1502                           ABECON1 equ 010Ch ;# 
  1503  010C                     # 2598 "C:\Program Files (x86)\Microchip\xc8\v2.00\pic\include\mcp19215.h"
  1504                           ABECON2 equ 010Dh ;# 
  1505  010D                     # 2632 "C:\Program Files (x86)\Microchip\xc8\v2.00\pic\include\mcp19215.h"
  1506                           SSPADD equ 0110h ;# 
  1507  0110                     # 2652 "C:\Program Files (x86)\Microchip\xc8\v2.00\pic\include\mcp19215.h"
  1508                           SSPBUF equ 0111h ;# 
  1509  0111                     # 2672 "C:\Program Files (x86)\Microchip\xc8\v2.00\pic\include\mcp19215.h"
  1510                           SSPCON1 equ 0112h ;# 
  1511  0112                     # 2742 "C:\Program Files (x86)\Microchip\xc8\v2.00\pic\include\mcp19215.h"
  1512                           SSPCON2 equ 0113h ;# 
  1513  0113                     # 2804 "C:\Program Files (x86)\Microchip\xc8\v2.00\pic\include\mcp19215.h"
  1514                           SSPCON3 equ 0114h ;# 
  1515  0114                     # 2866 "C:\Program Files (x86)\Microchip\xc8\v2.00\pic\include\mcp19215.h"
  1516                           SSPMSK equ 0115h ;# 
  1517  0115                     # 2886 "C:\Program Files (x86)\Microchip\xc8\v2.00\pic\include\mcp19215.h"
  1518                           SSPSTAT equ 0116h ;# 
  1519  0116                     # 2948 "C:\Program Files (x86)\Microchip\xc8\v2.00\pic\include\mcp19215.h"
  1520                           SSPADD2 equ 0117h ;# 
  1521  0117                     # 2968 "C:\Program Files (x86)\Microchip\xc8\v2.00\pic\include\mcp19215.h"
  1522                           SSPMSK2 equ 0118h ;# 
  1523  0118                     # 2988 "C:\Program Files (x86)\Microchip\xc8\v2.00\pic\include\mcp19215.h"
  1524                           SPBRG equ 011Bh ;# 
  1525  011B                     # 3050 "C:\Program Files (x86)\Microchip\xc8\v2.00\pic\include\mcp19215.h"
  1526                           RCREG equ 011Ch ;# 
  1527  011C                     # 3070 "C:\Program Files (x86)\Microchip\xc8\v2.00\pic\include\mcp19215.h"
  1528                           TXREG equ 011Dh ;# 
  1529  011D                     # 3090 "C:\Program Files (x86)\Microchip\xc8\v2.00\pic\include\mcp19215.h"
  1530                           TXSTA equ 011Eh ;# 
  1531  011E                     # 3147 "C:\Program Files (x86)\Microchip\xc8\v2.00\pic\include\mcp19215.h"
  1532                           RCSTA equ 011Fh ;# 
  1533  011F                     # 3209 "C:\Program Files (x86)\Microchip\xc8\v2.00\pic\include\mcp19215.h"
  1534                           IOCA equ 0185h ;# 
  1535  0185                     # 3266 "C:\Program Files (x86)\Microchip\xc8\v2.00\pic\include\mcp19215.h"
  1536                           IOCB equ 0186h ;# 
  1537  0186                     # 3317 "C:\Program Files (x86)\Microchip\xc8\v2.00\pic\include\mcp19215.h"
  1538                           ANSELA equ 0187h ;# 
  1539  0187                     # 3355 "C:\Program Files (x86)\Microchip\xc8\v2.00\pic\include\mcp19215.h"
  1540                           ANSELB equ 0188h ;# 
  1541  0188                     # 3395 "C:\Program Files (x86)\Microchip\xc8\v2.00\pic\include\mcp19215.h"
  1542                           PMCON1 equ 0190h ;# 
  1543  0190                     # 3434 "C:\Program Files (x86)\Microchip\xc8\v2.00\pic\include\mcp19215.h"
  1544                           PMCON2 equ 0191h ;# 
  1545  0191                     # 3454 "C:\Program Files (x86)\Microchip\xc8\v2.00\pic\include\mcp19215.h"
  1546                           PMADR equ 0192h ;# 
  1547  0192                     # 3461 "C:\Program Files (x86)\Microchip\xc8\v2.00\pic\include\mcp19215.h"
  1548                           PMADRL equ 0192h ;# 
  1549  0192                     # 3531 "C:\Program Files (x86)\Microchip\xc8\v2.00\pic\include\mcp19215.h"
  1550                           PMADRH equ 0193h ;# 
  1551  0193                     # 3577 "C:\Program Files (x86)\Microchip\xc8\v2.00\pic\include\mcp19215.h"
  1552                           PMDAT equ 0194h ;# 
  1553  0194                     # 3584 "C:\Program Files (x86)\Microchip\xc8\v2.00\pic\include\mcp19215.h"
  1554                           PMDATL equ 0194h ;# 
  1555  0194                     # 3654 "C:\Program Files (x86)\Microchip\xc8\v2.00\pic\include\mcp19215.h"
  1556                           PMDATH equ 0195h ;# 
  1557  0195                     # 3724 "C:\Program Files (x86)\Microchip\xc8\v2.00\pic\include\mcp19215.h"
  1558                           GMCAL1 equ 0196h ;# 
  1559  0196                     # 3750 "C:\Program Files (x86)\Microchip\xc8\v2.00\pic\include\mcp19215.h"
  1560                           EACAL2 equ 0196h ;# 
  1561  0196                     # 3776 "C:\Program Files (x86)\Microchip\xc8\v2.00\pic\include\mcp19215.h"
  1562                           GMCAL2 equ 0197h ;# 
  1563  0197                     # 3802 "C:\Program Files (x86)\Microchip\xc8\v2.00\pic\include\mcp19215.h"
  1564                           DCSCAL1 equ 0198h ;# 
  1565  0198                     # 3822 "C:\Program Files (x86)\Microchip\xc8\v2.00\pic\include\mcp19215.h"
  1566                           DACCAL1 equ 0198h ;# 
  1567  0198                     # 3848 "C:\Program Files (x86)\Microchip\xc8\v2.00\pic\include\mcp19215.h"
  1568                           DCSCAL2 equ 0199h ;# 
  1569  0199                     # 3868 "C:\Program Files (x86)\Microchip\xc8\v2.00\pic\include\mcp19215.h"
  1570                           DACCAL2 equ 0199h ;# 
  1571  0199                     # 3894 "C:\Program Files (x86)\Microchip\xc8\v2.00\pic\include\mcp19215.h"
  1572                           ADBT equ 019Ah ;# 
  1573  019A                     # 3915 "C:\Program Files (x86)\Microchip\xc8\v2.00\pic\include\mcp19215.h"
  1574                           EACAL1 equ 019Ah ;# 
  1575  019A                     # 3941 "C:\Program Files (x86)\Microchip\xc8\v2.00\pic\include\mcp19215.h"
  1576                           DACBGRCAL equ 019Bh ;# 
  1577  019B                     # 3967 "C:\Program Files (x86)\Microchip\xc8\v2.00\pic\include\mcp19215.h"
  1578                           PDSCAL equ 019Ch ;# 
  1579  019C                     # 3987 "C:\Program Files (x86)\Microchip\xc8\v2.00\pic\include\mcp19215.h"
  1580                           VRCAL equ 019Dh ;# 
  1581  019D                     # 4007 "C:\Program Files (x86)\Microchip\xc8\v2.00\pic\include\mcp19215.h"
  1582                           OSCCAL equ 019Eh ;# 
  1583  019E                     # 4027 "C:\Program Files (x86)\Microchip\xc8\v2.00\pic\include\mcp19215.h"
  1584                           ATSTCON equ 019Fh ;# 
  1585  019F                     	FNCALL	_main,_SYSTEM_Initialize
  1586                           	FNCALL	_SYSTEM_Initialize,_IVOUT1_Initialize
  1587                           	FNCALL	_SYSTEM_Initialize,_IVOUT2_Initialize
  1588                           	FNCALL	_SYSTEM_Initialize,_OSCILLATOR_Initialize
  1589                           	FNCALL	_SYSTEM_Initialize,_PIN_MANAGER_Initialize
  1590                           	FNCALL	_SYSTEM_Initialize,_SYSTEM_CONFIGURATION_Initialize
  1591                           	FNCALL	_SYSTEM_Initialize,_VIN_Initialize
  1592                           	FNCALL	_SYSTEM_CONFIGURATION_Initialize,_init_Calibration
  1593                           	FNCALL	_IVOUT2_Initialize,_IVOUT2_SetOutput
  1594                           	FNCALL	_IVOUT2_SetOutput,___awmod
  1595                           	FNCALL	_IVOUT1_Initialize,_IVOUT1_SetOutput
  1596                           	FNCALL	_IVOUT1_SetOutput,___awmod
  1597                           	FNROOT	_main
  1598                           	global	_GAIN2
  1599                           	global	_GAIN1
  1600                           	global	_TANA
  1601                           	global	_PIR2bits
  1602                           _PIR2bits	set	0x8
  1603  0008                     	global	_PWM2PHL
  1604                           _PWM2PHL	set	0x13
  1605  0013                     	global	_PWM2RL
  1606                           _PWM2RL	set	0x15
  1607  0015                     	global	_PWM1RL
  1608                           _PWM1RL	set	0x17
  1609  0017                     	global	_PORTGPA
  1610                           _PORTGPA	set	0x5
  1611  0005                     	global	_PORTGPB
  1612                           _PORTGPB	set	0x6
  1613  0006                     	global	_T2CONbits
  1614                           _T2CONbits	set	0x10
  1615  0010                     	global	_TMR2
  1616                           _TMR2	set	0xF
  1617  000F                     	global	_PR2
  1618                           _PR2	set	0x11
  1619  0011                     	global	_T2CON
  1620                           _T2CON	set	0x10
  1621  0010                     	global	_VINOVLO
  1622                           _VINOVLO	set	0x8D
  1623  008D                     	global	_VINUVLO
  1624                           _VINUVLO	set	0x8C
  1625  008C                     	global	_VINCON
  1626                           _VINCON	set	0x8E
  1627  008E                     	global	_SLPCRCON2
  1628                           _SLPCRCON2	set	0x9D
  1629  009D                     	global	_VREFCON2
  1630                           _VREFCON2	set	0x92
  1631  0092                     	global	_CREFCON2
  1632                           _CREFCON2	set	0x90
  1633  0090                     	global	_LOOPCON2
  1634                           _LOOPCON2	set	0x9A
  1635  009A                     	global	_SLPCRCON1
  1636                           _SLPCRCON1	set	0x9C
  1637  009C                     	global	_VREFCON1
  1638                           _VREFCON1	set	0x91
  1639  0091                     	global	_CREFCON1
  1640                           _CREFCON1	set	0x8F
  1641  008F                     	global	_LOOPCON1
  1642                           _LOOPCON1	set	0x99
  1643  0099                     	global	_ICLEBCONbits
  1644                           _ICLEBCONbits	set	0x9F
  1645  009F                     	global	_ICOACONbits
  1646                           _ICOACONbits	set	0x9E
  1647  009E                     	global	_OPTION_REGbits
  1648                           _OPTION_REGbits	set	0x81
  1649  0081                     	global	_TRISGPB
  1650                           _TRISGPB	set	0x86
  1651  0086                     	global	_TRISGPA
  1652                           _TRISGPA	set	0x85
  1653  0085                     	global	_TTCAL
  1654                           _TTCAL	set	0x9B
  1655  009B                     	global	_ABECON2bits
  1656                           _ABECON2bits	set	0x10D
  1657  010D                     	global	_ABECON1bits
  1658                           _ABECON1bits	set	0x10C
  1659  010C                     	global	_PE1bits
  1660                           _PE1bits	set	0x107
  1661  0107                     	global	_WPUGPB
  1662                           _WPUGPB	set	0x106
  1663  0106                     	global	_WPUGPA
  1664                           _WPUGPA	set	0x105
  1665  0105                     	global	_ABECON1
  1666                           _ABECON1	set	0x10C
  1667  010C                     	global	_PE1
  1668                           _PE1	set	0x107
  1669  0107                     	global	_PMDAT
  1670                           _PMDAT	set	0x194
  1671  0194                     	global	_EACAL1
  1672                           _EACAL1	set	0x19A
  1673  019A                     	global	_DACCAL1
  1674                           _DACCAL1	set	0x198
  1675  0198                     	global	_DACCAL2
  1676                           _DACCAL2	set	0x199
  1677  0199                     	global	_EACAL2
  1678                           _EACAL2	set	0x196
  1679  0196                     	global	_OSCCAL
  1680                           _OSCCAL	set	0x19E
  1681  019E                     	global	_ADBT
  1682                           _ADBT	set	0x19A
  1683  019A                     	global	_PDSCAL
  1684                           _PDSCAL	set	0x19C
  1685  019C                     	global	_DACBGRCAL
  1686                           _DACBGRCAL	set	0x19B
  1687  019B                     	global	_VRCAL
  1688                           _VRCAL	set	0x19D
  1689  019D                     	global	_GMCAL2
  1690                           _GMCAL2	set	0x197
  1691  0197                     	global	_DCSCAL2
  1692                           _DCSCAL2	set	0x199
  1693  0199                     	global	_PMDATL
  1694                           _PMDATL	set	0x194
  1695  0194                     	global	_GMCAL1
  1696                           _GMCAL1	set	0x196
  1697  0196                     	global	_PMDATH
  1698                           _PMDATH	set	0x195
  1699  0195                     	global	_DCSCAL1
  1700                           _DCSCAL1	set	0x198
  1701  0198                     	global	_PMADRL
  1702                           _PMADRL	set	0x192
  1703  0192                     	global	_PMADRH
  1704                           _PMADRH	set	0x193
  1705  0193                     	global	_PMCON1bits
  1706                           _PMCON1bits	set	0x190
  1707  0190                     ; #config settings
  1708                           global __CFG_WDTE$OFF
  1709                           __CFG_WDTE$OFF equ 0x0
  1710  0000                     global __CFG_PWRTE$OFF
  1711                           __CFG_PWRTE$OFF equ 0x0
  1712  0000                     global __CFG_MCLRE$ON
  1713                           __CFG_MCLRE$ON equ 0x0
  1714  0000                     global __CFG_CP$OFF
  1715                           __CFG_CP$OFF equ 0x0
  1716  0000                     global __CFG_BOREN$ON
  1717                           __CFG_BOREN$ON equ 0x0
  1718  0000                     global __CFG_WRT$OFF
  1719                           __CFG_WRT$OFF equ 0x0
  1720  0000                     	file	"C:\Users\A50807\AppData\Local\Temp\s5pc."
  1721                           	line	#
  1722                           psect cinit,class=CODE,delta=2
  1723                           global start_initialization
  1724                           start_initialization:
  1725  07F4                     
  1726                           global __initialization
  1727                           __initialization:
  1728  07F4                     psect	bssBANK0,class=BANK0,space=1,noexec
  1729                           global __pbssBANK0
  1730                           __pbssBANK0:
  1731  0027                     _GAIN2:
  1732  0027                            ds      2
  1733  0027                     
  1734                           _GAIN1:
  1735  0029                            ds      2
  1736  0029                     
  1737                           _TANA:
  1738  002B                            ds      2
  1739  002B                     
  1740                           	file	"C:\Users\A50807\AppData\Local\Temp\s5pc."
  1741                           	line	#
  1742                           ; Clear objects allocated to BANK0
  1743                           psect cinit,class=CODE,delta=2,merge=1
  1744                           	bcf	status, 5	;RP0=0, select bank0
  1745  07F4  1283               	bcf	status, 6	;RP1=0, select bank0
  1746  07F5  1303               	clrf	((__pbssBANK0)+0)&07Fh
  1747  07F6  01A7               	clrf	((__pbssBANK0)+1)&07Fh
  1748  07F7  01A8               	clrf	((__pbssBANK0)+2)&07Fh
  1749  07F8  01A9               	clrf	((__pbssBANK0)+3)&07Fh
  1750  07F9  01AA               	clrf	((__pbssBANK0)+4)&07Fh
  1751  07FA  01AB               	clrf	((__pbssBANK0)+5)&07Fh
  1752  07FB  01AC               psect cinit,class=CODE,delta=2,merge=1
  1753                           global end_of_initialization,__end_of__initialization
  1754                           
  1755                           ;End of C runtime variable initialization code
  1756                           
  1757                           end_of_initialization:
  1758  07FC                     __end_of__initialization:
  1759  07FC                     clrf status
  1760  07FC  0183               ljmp _main	;jump to C main() function
  1761  07FD  120A  118A  2BE2   psect	cstackCOMMON,class=COMMON,space=1,noexec
  1762                           global __pcstackCOMMON
  1763                           __pcstackCOMMON:
  1764  0070                     ?_PIN_MANAGER_Initialize:	; 1 bytes @ 0x0
  1765  0070                     ??_PIN_MANAGER_Initialize:	; 1 bytes @ 0x0
  1766  0070                     ?_SYSTEM_CONFIGURATION_Initialize:	; 1 bytes @ 0x0
  1767  0070                     ?_OSCILLATOR_Initialize:	; 1 bytes @ 0x0
  1768  0070                     ??_OSCILLATOR_Initialize:	; 1 bytes @ 0x0
  1769  0070                     ?_VIN_Initialize:	; 1 bytes @ 0x0
  1770  0070                     ??_VIN_Initialize:	; 1 bytes @ 0x0
  1771  0070                     ?_IVOUT2_Initialize:	; 1 bytes @ 0x0
  1772  0070                     ?_IVOUT1_Initialize:	; 1 bytes @ 0x0
  1773  0070                     ?_IVOUT1_SetOutput:	; 1 bytes @ 0x0
  1774  0070                     ?_IVOUT2_SetOutput:	; 1 bytes @ 0x0
  1775  0070                     ?_init_Calibration:	; 1 bytes @ 0x0
  1776  0070                     ??_init_Calibration:	; 1 bytes @ 0x0
  1777  0070                     ?_SYSTEM_Initialize:	; 1 bytes @ 0x0
  1778  0070                     ?_main:	; 1 bytes @ 0x0
  1779  0070                     	global	?___awmod
  1780                           ?___awmod:	; 2 bytes @ 0x0
  1781  0070                     	global	___awmod@divisor
  1782                           ___awmod@divisor:	; 2 bytes @ 0x0
  1783  0070                     	ds	2
  1784  0070                     ??_SYSTEM_CONFIGURATION_Initialize:	; 1 bytes @ 0x2
  1785  0072                     	global	___awmod@dividend
  1786                           ___awmod@dividend:	; 2 bytes @ 0x2
  1787  0072                     	ds	2
  1788  0072                     ??___awmod:	; 1 bytes @ 0x4
  1789  0074                     	ds	1
  1790  0074                     	global	___awmod@counter
  1791                           ___awmod@counter:	; 1 bytes @ 0x5
  1792  0075                     	ds	1
  1793  0075                     	global	___awmod@sign
  1794                           ___awmod@sign:	; 1 bytes @ 0x6
  1795  0076                     	ds	1
  1796  0076                     ??_IVOUT1_SetOutput:	; 1 bytes @ 0x7
  1797  0077                     ??_IVOUT2_SetOutput:	; 1 bytes @ 0x7
  1798  0077                     	ds	5
  1799  0077                     ??_IVOUT2_Initialize:	; 1 bytes @ 0xC
  1800  007C                     ??_IVOUT1_Initialize:	; 1 bytes @ 0xC
  1801  007C                     	ds	1
  1802  007C                     	global	IVOUT1_Initialize@target
  1803                           IVOUT1_Initialize@target:	; 1 bytes @ 0xD
  1804  007D                     	global	IVOUT2_Initialize@target
  1805                           IVOUT2_Initialize@target:	; 1 bytes @ 0xD
  1806  007D                     	ds	1
  1807  007D                     ??_SYSTEM_Initialize:	; 1 bytes @ 0xE
  1808  007E                     ??_main:	; 1 bytes @ 0xE
  1809  007E                     psect	cstackBANK0,class=BANK0,space=1,noexec
  1810                           global __pcstackBANK0
  1811                           __pcstackBANK0:
  1812  0020                     	global	IVOUT1_SetOutput@firstStep
  1813                           IVOUT1_SetOutput@firstStep:	; 1 bytes @ 0x0
  1814  0020                     	global	IVOUT2_SetOutput@firstStep
  1815                           IVOUT2_SetOutput@firstStep:	; 1 bytes @ 0x0
  1816  0020                     	ds	1
  1817  0020                     	global	IVOUT1_SetOutput@firstStep_258
  1818                           IVOUT1_SetOutput@firstStep_258:	; 1 bytes @ 0x1
  1819  0021                     	global	IVOUT2_SetOutput@firstStep_332
  1820                           IVOUT2_SetOutput@firstStep_332:	; 1 bytes @ 0x1
  1821  0021                     	ds	1
  1822  0021                     	global	IVOUT1_SetOutput@firstStep_260
  1823                           IVOUT1_SetOutput@firstStep_260:	; 1 bytes @ 0x2
  1824  0022                     	global	IVOUT2_SetOutput@firstStep_334
  1825                           IVOUT2_SetOutput@firstStep_334:	; 1 bytes @ 0x2
  1826  0022                     	ds	1
  1827  0022                     	global	IVOUT1_SetOutput@firstStep_261
  1828                           IVOUT1_SetOutput@firstStep_261:	; 1 bytes @ 0x3
  1829  0023                     	global	IVOUT2_SetOutput@firstStep_335
  1830                           IVOUT2_SetOutput@firstStep_335:	; 1 bytes @ 0x3
  1831  0023                     	ds	1
  1832  0023                     	global	IVOUT1_SetOutput@pwmStep
  1833                           IVOUT1_SetOutput@pwmStep:	; 1 bytes @ 0x4
  1834  0024                     	global	IVOUT2_SetOutput@pwmStep
  1835                           IVOUT2_SetOutput@pwmStep:	; 1 bytes @ 0x4
  1836  0024                     	ds	1
  1837  0024                     	global	IVOUT1_SetOutput@outputStep
  1838                           IVOUT1_SetOutput@outputStep:	; 1 bytes @ 0x5
  1839  0025                     	global	IVOUT2_SetOutput@outputStep
  1840                           IVOUT2_SetOutput@outputStep:	; 1 bytes @ 0x5
  1841  0025                     	ds	1
  1842  0025                     	global	IVOUT1_SetOutput@outputTarget
  1843                           IVOUT1_SetOutput@outputTarget:	; 1 bytes @ 0x6
  1844  0026                     	global	IVOUT2_SetOutput@outputTarget
  1845                           IVOUT2_SetOutput@outputTarget:	; 1 bytes @ 0x6
  1846  0026                     	ds	1
  1847  0026                     ;!
  1848                           ;!Data Sizes:
  1849                           ;!    Strings     0
  1850                           ;!    Constant    0
  1851                           ;!    Data        0
  1852                           ;!    BSS         6
  1853                           ;!    Persistent  0
  1854                           ;!    Stack       0
  1855                           ;!
  1856                           ;!Auto Spaces:
  1857                           ;!    Space          Size  Autos    Used
  1858                           ;!    COMMON           14     14      14
  1859                           ;!    BANK0            80      7      13
  1860                           ;!    BANK1            80      0       0
  1861                           ;!    BANK2            80      0       0
  1862                           
  1863                           ;!
  1864                           ;!Pointer List with Targets:
  1865                           ;!
  1866                           ;!    None.
  1867                           
  1868                           
  1869                           ;!
  1870                           ;!Critical Paths under _main in COMMON
  1871                           ;!
  1872                           ;!    _SYSTEM_Initialize->_IVOUT1_Initialize
  1873                           ;!    _SYSTEM_Initialize->_IVOUT2_Initialize
  1874                           ;!    _SYSTEM_CONFIGURATION_Initialize->_init_Calibration
  1875                           ;!    _IVOUT2_Initialize->_IVOUT2_SetOutput
  1876                           ;!    _IVOUT2_SetOutput->___awmod
  1877                           ;!    _IVOUT1_Initialize->_IVOUT1_SetOutput
  1878                           ;!    _IVOUT1_SetOutput->___awmod
  1879                           ;!
  1880                           ;!Critical Paths under _main in BANK0
  1881                           ;!
  1882                           ;!    _IVOUT2_Initialize->_IVOUT2_SetOutput
  1883                           ;!    _IVOUT1_Initialize->_IVOUT1_SetOutput
  1884                           ;!
  1885                           ;!Critical Paths under _main in BANK1
  1886                           ;!
  1887                           ;!    None.
  1888                           ;!
  1889                           ;!Critical Paths under _main in BANK2
  1890                           ;!
  1891                           ;!    None.
  1892                           
  1893 ;;
  1894 ;;Main: autosize = 0, tempsize = 0, incstack = 0, save=0
  1895 ;;
  1896                           
  1897                           ;!
  1898                           ;!Call Graph Tables:
  1899                           ;!
  1900                           ;! ---------------------------------------------------------------------------------
  1901                           ;! (Depth) Function   	        Calls       Base Space   Used Autos Params    Refs
  1902                           ;! ---------------------------------------------------------------------------------
  1903                           ;! (0) _main                                                 0     0      0    3874
  1904                           ;!                  _SYSTEM_Initialize
  1905                           ;! ---------------------------------------------------------------------------------
  1906                           ;! (1) _SYSTEM_Initialize                                    0     0      0    3874
  1907                           ;!                  _IVOUT1_Initialize
  1908                           ;!                  _IVOUT2_Initialize
  1909                           ;!              _OSCILLATOR_Initialize
  1910                           ;!             _PIN_MANAGER_Initialize
  1911                           ;!    _SYSTEM_CONFIGURATION_Initialize
  1912                           ;!                     _VIN_Initialize
  1913                           ;! ---------------------------------------------------------------------------------
  1914                           ;! (2) _VIN_Initialize                                       2     2      0       0
  1915                           ;!                                              0 COMMON     2     2      0
  1916                           ;! ---------------------------------------------------------------------------------
  1917                           ;! (2) _SYSTEM_CONFIGURATION_Initialize                      0     0      0       0
  1918                           ;!                   _init_Calibration
  1919                           ;! ---------------------------------------------------------------------------------
  1920                           ;! (3) _init_Calibration                                     2     2      0       0
  1921                           ;!                                              0 COMMON     2     2      0
  1922                           ;! ---------------------------------------------------------------------------------
  1923                           ;! (2) _PIN_MANAGER_Initialize                               0     0      0       0
  1924                           ;! ---------------------------------------------------------------------------------
  1925                           ;! (2) _OSCILLATOR_Initialize                                0     0      0       0
  1926                           ;! ---------------------------------------------------------------------------------
  1927                           ;! (2) _IVOUT2_Initialize                                    2     2      0    1937
  1928                           ;!                                             12 COMMON     2     2      0
  1929                           ;!                   _IVOUT2_SetOutput
  1930                           ;! ---------------------------------------------------------------------------------
  1931                           ;! (3) _IVOUT2_SetOutput                                    12    12      0    1914
  1932                           ;!                                              7 COMMON     5     5      0
  1933                           ;!                                              0 BANK0      7     7      0
  1934                           ;!                            ___awmod
  1935                           ;! ---------------------------------------------------------------------------------
  1936                           ;! (2) _IVOUT1_Initialize                                    2     2      0    1937
  1937                           ;!                                             12 COMMON     2     2      0
  1938                           ;!                   _IVOUT1_SetOutput
  1939                           ;! ---------------------------------------------------------------------------------
  1940                           ;! (3) _IVOUT1_SetOutput                                    12    12      0    1914
  1941                           ;!                                              7 COMMON     5     5      0
  1942                           ;!                                              0 BANK0      7     7      0
  1943                           ;!                            ___awmod
  1944                           ;! ---------------------------------------------------------------------------------
  1945                           ;! (4) ___awmod                                              7     3      4    1512
  1946                           ;!                                              0 COMMON     7     3      4
  1947                           ;! ---------------------------------------------------------------------------------
  1948                           ;! Estimated maximum stack depth 4
  1949                           ;! ---------------------------------------------------------------------------------
  1950                           ;!
  1951                           ;! Call Graph Graphs:
  1952                           ;!
  1953                           ;! _main (ROOT)
  1954                           ;!   _SYSTEM_Initialize
  1955                           ;!     _IVOUT1_Initialize
  1956                           ;!       _IVOUT1_SetOutput
  1957                           ;!         ___awmod
  1958                           ;!     _IVOUT2_Initialize
  1959                           ;!       _IVOUT2_SetOutput
  1960                           ;!         ___awmod
  1961                           ;!     _OSCILLATOR_Initialize
  1962                           ;!     _PIN_MANAGER_Initialize
  1963                           ;!     _SYSTEM_CONFIGURATION_Initialize
  1964                           ;!       _init_Calibration
  1965                           ;!     _VIN_Initialize
  1966                           ;!
  1967                           
  1968                           ;! Address spaces:
  1969                           
  1970                           ;!Name               Size   Autos  Total    Cost      Usage
  1971                           ;!BITCOMMON            E      0       0       0        0.0%
  1972                           ;!NULL                 0      0       0       0        0.0%
  1973                           ;!CODE                 0      0       0       0        0.0%
  1974                           ;!COMMON               E      E       E       1      100.0%
  1975                           ;!BITSFR0              0      0       0       1        0.0%
  1976                           ;!SFR0                 0      0       0       1        0.0%
  1977                           ;!BITSFR1              0      0       0       2        0.0%
  1978                           ;!SFR1                 0      0       0       2        0.0%
  1979                           ;!STACK                0      0       0       2        0.0%
  1980                           ;!BITBANK0            50      0       0       3        0.0%
  1981                           ;!BANK0               50      7       D       4       16.3%
  1982                           ;!BITSFR3              0      0       0       4        0.0%
  1983                           ;!SFR3                 0      0       0       4        0.0%
  1984                           ;!BITBANK1            50      0       0       5        0.0%
  1985                           ;!BITSFR2              0      0       0       5        0.0%
  1986                           ;!SFR2                 0      0       0       5        0.0%
  1987                           ;!BANK1               50      0       0       6        0.0%
  1988                           ;!BANK2               50      0       0       7        0.0%
  1989                           ;!ABS                  0      0      1B       8        0.0%
  1990                           ;!DATA                 0      0      1B       9        0.0%
  1991                           ;!BITBANK2            50      0       0      10        0.0%
  1992                           
  1993                           	global	_main
  1994                           
  1995 ;; *************** function _main *****************
  1996 ;; Defined at:
  1997 ;;		line 49 in file "main.c"
  1998 ;; Parameters:    Size  Location     Type
  1999 ;;		None
  2000 ;; Auto vars:     Size  Location     Type
  2001 ;;		None
  2002 ;; Return value:  Size  Location     Type
  2003 ;;                  1    wreg      void 
  2004 ;; Registers used:
  2005 ;;		wreg, status,2, status,0, pclath, cstack
  2006 ;; Tracked objects:
  2007 ;;		On entry : B00/0
  2008 ;;		On exit  : 0/0
  2009 ;;		Unchanged: 0/0
  2010 ;; Data sizes:     COMMON   BANK0   BANK1   BANK2
  2011 ;;      Params:         0       0       0       0
  2012 ;;      Locals:         0       0       0       0
  2013 ;;      Temps:          0       0       0       0
  2014 ;;      Totals:         0       0       0       0
  2015 ;;Total ram usage:        0 bytes
  2016 ;; Hardware stack levels required when called:    4
  2017 ;; This function calls:
  2018 ;;		_SYSTEM_Initialize
  2019 ;; This function is called by:
  2020 ;;		Startup code after reset
  2021 ;; This function uses a non-reentrant model
  2022 ;;
  2023                           psect	maintext,global,class=CODE,delta=2,split=1,group=0
  2024                           	file	"main.c"
  2025                           	line	49
  2026                           global __pmaintext
  2027                           __pmaintext:	;psect for function _main
  2028  03E2                     psect	maintext
  2029                           	file	"main.c"
  2030                           	line	49
  2031                           	global	__size_of_main
  2032                           	__size_of_main	equ	__end_of_main-_main
  2033  0009                     	
  2034                           _main:	
  2035  03E2                     ;incstack = 0
  2036                           	opt	stack 4
  2037                           ; Regs used in _main: [wreg+status,2+status,0+pclath+cstack]
  2038                           	line	52
  2039                           	
  2040                           l1400:	
  2041  03E2                     ;main.c: 52:     SYSTEM_Initialize();
  2042                           	fcall	_SYSTEM_Initialize
  2043  03E2  120A  118A  2425  120A  118A  	line	69
  2044                           ;main.c: 69:     while (1)
  2045                           	
  2046                           l157:	
  2047  03E7                     	line	72
  2048                           ;main.c: 70:     {;main.c: 72:     }
  2049                           	
  2050                           l158:	
  2051  03E7                     	goto	l157
  2052  03E7  2BE7               	
  2053                           l159:	
  2054  03E8                     	line	73
  2055                           	
  2056                           l160:	
  2057  03E8                     	global	start
  2058                           	ljmp	start
  2059  03E8  120A  118A  2800   	opt stack 0
  2060                           GLOBAL	__end_of_main
  2061                           	__end_of_main:
  2062  03EB                     	signat	_main,89
  2063                           	global	_SYSTEM_Initialize
  2064                           
  2065 ;; *************** function _SYSTEM_Initialize *****************
  2066 ;; Defined at:
  2067 ;;		line 56 in file "mcc_generated_files/mcc.c"
  2068 ;; Parameters:    Size  Location     Type
  2069 ;;		None
  2070 ;; Auto vars:     Size  Location     Type
  2071 ;;		None
  2072 ;; Return value:  Size  Location     Type
  2073 ;;                  1    wreg      void 
  2074 ;; Registers used:
  2075 ;;		wreg, status,2, status,0, pclath, cstack
  2076 ;; Tracked objects:
  2077 ;;		On entry : 0/0
  2078 ;;		On exit  : 0/0
  2079 ;;		Unchanged: 0/0
  2080 ;; Data sizes:     COMMON   BANK0   BANK1   BANK2
  2081 ;;      Params:         0       0       0       0
  2082 ;;      Locals:         0       0       0       0
  2083 ;;      Temps:          0       0       0       0
  2084 ;;      Totals:         0       0       0       0
  2085 ;;Total ram usage:        0 bytes
  2086 ;; Hardware stack levels used:    1
  2087 ;; Hardware stack levels required when called:    3
  2088 ;; This function calls:
  2089 ;;		_IVOUT1_Initialize
  2090 ;;		_IVOUT2_Initialize
  2091 ;;		_OSCILLATOR_Initialize
  2092 ;;		_PIN_MANAGER_Initialize
  2093 ;;		_SYSTEM_CONFIGURATION_Initialize
  2094 ;;		_VIN_Initialize
  2095 ;; This function is called by:
  2096 ;;		_main
  2097 ;; This function uses a non-reentrant model
  2098 ;;
  2099                           psect	text1,local,class=CODE,delta=2,merge=1,group=0
  2100                           	file	"mcc_generated_files/mcc.c"
  2101                           	line	56
  2102                           global __ptext1
  2103                           __ptext1:	;psect for function _SYSTEM_Initialize
  2104  0425                     psect	text1
  2105                           	file	"mcc_generated_files/mcc.c"
  2106                           	line	56
  2107                           	global	__size_of_SYSTEM_Initialize
  2108                           	__size_of_SYSTEM_Initialize	equ	__end_of_SYSTEM_Initialize-_SYSTEM_Initialize
  2109  001F                     	
  2110                           _SYSTEM_Initialize:	
  2111  0425                     ;incstack = 0
  2112                           	opt	stack 4
  2113                           ; Regs used in _SYSTEM_Initialize: [wreg+status,2+status,0+pclath+cstack]
  2114                           	line	58
  2115                           	
  2116                           l1398:	
  2117  0425                     ;mcc_generated_files/mcc.c: 58:     PIN_MANAGER_Initialize();
  2118                           	fcall	_PIN_MANAGER_Initialize
  2119  0425  120A  118A  23F5  120A  118A  	line	59
  2120                           ;mcc_generated_files/mcc.c: 59:     SYSTEM_CONFIGURATION_Initialize();
  2121                           	fcall	_SYSTEM_CONFIGURATION_Initialize
  2122  042A  120A  118A  23EB  120A  118A  	line	60
  2123                           ;mcc_generated_files/mcc.c: 60:     OSCILLATOR_Initialize();
  2124                           	fcall	_OSCILLATOR_Initialize
  2125  042F  120A  118A  23DA  120A  118A  	line	61
  2126                           ;mcc_generated_files/mcc.c: 61:     VIN_Initialize();
  2127                           	fcall	_VIN_Initialize
  2128  0434  120A  118A  2409  120A  118A  	line	62
  2129                           ;mcc_generated_files/mcc.c: 62:     IVOUT2_Initialize();
  2130                           	fcall	_IVOUT2_Initialize
  2131  0439  120A  118A  246A  120A  118A  	line	63
  2132                           ;mcc_generated_files/mcc.c: 63:     IVOUT1_Initialize();
  2133                           	fcall	_IVOUT1_Initialize
  2134  043E  120A  118A  2444  120A  118A  	line	64
  2135                           	
  2136                           l80:	
  2137  0443                     	return
  2138  0443  0008               	opt stack 0
  2139                           GLOBAL	__end_of_SYSTEM_Initialize
  2140                           	__end_of_SYSTEM_Initialize:
  2141  0444                     	signat	_SYSTEM_Initialize,89
  2142                           	global	_VIN_Initialize
  2143                           
  2144 ;; *************** function _VIN_Initialize *****************
  2145 ;; Defined at:
  2146 ;;		line 56 in file "mcc_generated_files/vin.c"
  2147 ;; Parameters:    Size  Location     Type
  2148 ;;		None
  2149 ;; Auto vars:     Size  Location     Type
  2150 ;;		None
  2151 ;; Return value:  Size  Location     Type
  2152 ;;                  1    wreg      void 
  2153 ;; Registers used:
  2154 ;;		wreg
  2155 ;; Tracked objects:
  2156 ;;		On entry : 0/0
  2157 ;;		On exit  : 0/0
  2158 ;;		Unchanged: 0/0
  2159 ;; Data sizes:     COMMON   BANK0   BANK1   BANK2
  2160 ;;      Params:         0       0       0       0
  2161 ;;      Locals:         0       0       0       0
  2162 ;;      Temps:          2       0       0       0
  2163 ;;      Totals:         2       0       0       0
  2164 ;;Total ram usage:        2 bytes
  2165 ;; Hardware stack levels used:    1
  2166 ;; This function calls:
  2167 ;;		Nothing
  2168 ;; This function is called by:
  2169 ;;		_SYSTEM_Initialize
  2170 ;; This function uses a non-reentrant model
  2171 ;;
  2172                           psect	text2,local,class=CODE,delta=2,merge=1,group=0
  2173                           	file	"mcc_generated_files/vin.c"
  2174                           	line	56
  2175                           global __ptext2
  2176                           __ptext2:	;psect for function _VIN_Initialize
  2177  0409                     psect	text2
  2178                           	file	"mcc_generated_files/vin.c"
  2179                           	line	56
  2180                           	global	__size_of_VIN_Initialize
  2181                           	__size_of_VIN_Initialize	equ	__end_of_VIN_Initialize-_VIN_Initialize
  2182  001C                     	
  2183                           _VIN_Initialize:	
  2184  0409                     ;incstack = 0
  2185                           	opt	stack 6
  2186                           ; Regs used in _VIN_Initialize: [wreg]
  2187                           	line	59
  2188                           	
  2189                           l1012:	
  2190  0409                     ;mcc_generated_files/vin.c: 59:     VINCON = 0x88;
  2191                           	movlw	low(088h)
  2192  0409  3088               	bsf	status, 5	;RP0=1, select bank1
  2193  040A  1683               	bcf	status, 6	;RP1=0, select bank1
  2194  040B  1303               	movwf	(142)^080h	;volatile
  2195  040C  008E               	line	61
  2196                           ;mcc_generated_files/vin.c: 61:     VINUVLO = 0x21;
  2197                           	movlw	low(021h)
  2198  040D  3021               	movwf	(140)^080h	;volatile
  2199  040E  008C               	line	63
  2200                           ;mcc_generated_files/vin.c: 63:     VINOVLO = 0x19;
  2201                           	movlw	low(019h)
  2202  040F  3019               	movwf	(141)^080h	;volatile
  2203  0410  008D               	line	65
  2204                           ;mcc_generated_files/vin.c: 65:     while(PIR2bits.UVLOIF)
  2205                           	goto	l1016
  2206  0411  2C1D               	
  2207                           l223:	
  2208  0412                     	line	67
  2209                           ;mcc_generated_files/vin.c: 66:     {;mcc_generated_files/vin.c: 67:         PIR2bits.UV
                                 LOIF = 0;
  2210                           	bcf	(8),0	;volatile
  2211  0412  1008               	line	68
  2212                           	
  2213                           l1014:	
  2214  0413                     ;mcc_generated_files/vin.c: 68:         _delay((unsigned long)((1)*(8000000/4000.0)));
  2215                           	opt asmopt_push
  2216                           opt asmopt_off
  2217                           movlw	3
  2218  0413  3003               movwf	((??_VIN_Initialize+0)+0+1),f
  2219  0414  00F1               	movlw	151
  2220  0415  3097               movwf	((??_VIN_Initialize+0)+0),f
  2221  0416  00F0               	u547:
  2222  0417                     decfsz	((??_VIN_Initialize+0)+0),f
  2223  0417  0BF0               	goto	u547
  2224  0418  2C17               	decfsz	((??_VIN_Initialize+0)+0+1),f
  2225  0419  0BF1               	goto	u547
  2226  041A  2C17               	nop2
  2227  041B  2C1C               opt asmopt_pop
  2228                           
  2229                           	goto	l1016
  2230  041C  2C1D               	line	69
  2231                           ;mcc_generated_files/vin.c: 69:     }
  2232                           	
  2233                           l222:	
  2234  041D                     	line	65
  2235                           	
  2236                           l1016:	
  2237  041D                     ;mcc_generated_files/vin.c: 65:     while(PIR2bits.UVLOIF)
  2238                           	bcf	status, 5	;RP0=0, select bank0
  2239  041D  1283               	bcf	status, 6	;RP1=0, select bank0
  2240  041E  1303               	btfsc	(8),0	;volatile
  2241  041F  1808               	goto	u271
  2242  0420  2C22               	goto	u270
  2243  0421  2C23               u271:
  2244  0422                     	goto	l223
  2245  0422  2C12               u270:
  2246  0423                     	goto	l225
  2247  0423  2C24               	
  2248                           l224:	
  2249  0424                     	line	70
  2250                           	
  2251                           l225:	
  2252  0424                     	return
  2253  0424  0008               	opt stack 0
  2254                           GLOBAL	__end_of_VIN_Initialize
  2255                           	__end_of_VIN_Initialize:
  2256  0425                     	signat	_VIN_Initialize,89
  2257                           	global	_SYSTEM_CONFIGURATION_Initialize
  2258                           
  2259 ;; *************** function _SYSTEM_CONFIGURATION_Initialize *****************
  2260 ;; Defined at:
  2261 ;;		line 79 in file "mcc_generated_files/mcc.c"
  2262 ;; Parameters:    Size  Location     Type
  2263 ;;		None
  2264 ;; Auto vars:     Size  Location     Type
  2265 ;;		None
  2266 ;; Return value:  Size  Location     Type
  2267 ;;                  1    wreg      void 
  2268 ;; Registers used:
  2269 ;;		wreg, status,2, status,0, pclath, cstack
  2270 ;; Tracked objects:
  2271 ;;		On entry : 0/0
  2272 ;;		On exit  : 0/0
  2273 ;;		Unchanged: 0/0
  2274 ;; Data sizes:     COMMON   BANK0   BANK1   BANK2
  2275 ;;      Params:         0       0       0       0
  2276 ;;      Locals:         0       0       0       0
  2277 ;;      Temps:          0       0       0       0
  2278 ;;      Totals:         0       0       0       0
  2279 ;;Total ram usage:        0 bytes
  2280 ;; Hardware stack levels used:    1
  2281 ;; Hardware stack levels required when called:    1
  2282 ;; This function calls:
  2283 ;;		_init_Calibration
  2284 ;; This function is called by:
  2285 ;;		_SYSTEM_Initialize
  2286 ;; This function uses a non-reentrant model
  2287 ;;
  2288                           psect	text3,local,class=CODE,delta=2,merge=1,group=0
  2289                           	file	"mcc_generated_files/mcc.c"
  2290                           	line	79
  2291                           global __ptext3
  2292                           __ptext3:	;psect for function _SYSTEM_CONFIGURATION_Initialize
  2293  03EB                     psect	text3
  2294                           	file	"mcc_generated_files/mcc.c"
  2295                           	line	79
  2296                           	global	__size_of_SYSTEM_CONFIGURATION_Initialize
  2297                           	__size_of_SYSTEM_CONFIGURATION_Initialize	equ	__end_of_SYSTEM_CONFIGURATION_Initialize-
                                 _SYSTEM_CONFIGURATION_Initialize
  2298  000A                     	
  2299                           _SYSTEM_CONFIGURATION_Initialize:	
  2300  03EB                     ;incstack = 0
  2301                           	opt	stack 5
  2302                           ; Regs used in _SYSTEM_CONFIGURATION_Initialize: [wreg+status,2+status,0+pclath+cstack]

  2303                           	line	81
  2304                           	
  2305                           l1346:	
  2306  03EB                     ;mcc_generated_files/mcc.c: 81:     init_Calibration();
  2307                           	fcall	_init_Calibration
  2308  03EB  120A  118A  24F4  120A  118A  	line	83
  2309                           	
  2310                           l1348:	
  2311  03F0                     ;mcc_generated_files/mcc.c: 83:     PE1 = 0x0;
  2312                           	bcf	status, 5	;RP0=0, select bank2
  2313  03F0  1283               	bsf	status, 6	;RP1=1, select bank2
  2314  03F1  1703               	clrf	(263)^0100h	;volatile
  2315  03F2  0187               	line	85
  2316                           	
  2317                           l1350:	
  2318  03F3                     ;mcc_generated_files/mcc.c: 85:     ABECON1 = 0x0;
  2319                           	clrf	(268)^0100h	;volatile
  2320  03F3  018C               	line	86
  2321                           	
  2322                           l86:	
  2323  03F4                     	return
  2324  03F4  0008               	opt stack 0
  2325                           GLOBAL	__end_of_SYSTEM_CONFIGURATION_Initialize
  2326                           	__end_of_SYSTEM_CONFIGURATION_Initialize:
  2327  03F5                     	signat	_SYSTEM_CONFIGURATION_Initialize,89
  2328                           	global	_init_Calibration
  2329                           
  2330 ;; *************** function _init_Calibration *****************
  2331 ;; Defined at:
  2332 ;;		line 48 in file "mcc_generated_files/calibration.c"
  2333 ;; Parameters:    Size  Location     Type
  2334 ;;		None
  2335 ;; Auto vars:     Size  Location     Type
  2336 ;;		None
  2337 ;; Return value:  Size  Location     Type
  2338 ;;                  1    wreg      void 
  2339 ;; Registers used:
  2340 ;;		wreg, status,2, status,0
  2341 ;; Tracked objects:
  2342 ;;		On entry : 0/0
  2343 ;;		On exit  : 0/0
  2344 ;;		Unchanged: 0/0
  2345 ;; Data sizes:     COMMON   BANK0   BANK1   BANK2
  2346 ;;      Params:         0       0       0       0
  2347 ;;      Locals:         0       0       0       0
  2348 ;;      Temps:          2       0       0       0
  2349 ;;      Totals:         2       0       0       0
  2350 ;;Total ram usage:        2 bytes
  2351 ;; Hardware stack levels used:    1
  2352 ;; This function calls:
  2353 ;;		Nothing
  2354 ;; This function is called by:
  2355 ;;		_SYSTEM_CONFIGURATION_Initialize
  2356 ;; This function uses a non-reentrant model
  2357 ;;
  2358                           psect	text4,local,class=CODE,delta=2,merge=1,group=0
  2359                           	file	"mcc_generated_files/calibration.c"
  2360                           	line	48
  2361                           global __ptext4
  2362                           __ptext4:	;psect for function _init_Calibration
  2363  04F4                     psect	text4
  2364                           	file	"mcc_generated_files/calibration.c"
  2365                           	line	48
  2366                           	global	__size_of_init_Calibration
  2367                           	__size_of_init_Calibration	equ	__end_of_init_Calibration-_init_Calibration
  2368  00AA                     	
  2369                           _init_Calibration:	
  2370  04F4                     ;incstack = 0
  2371                           	opt	stack 5
  2372                           ; Regs used in _init_Calibration: [wreg+status,2+status,0]
  2373                           	line	51
  2374                           	
  2375                           l1114:	
  2376  04F4                     ;mcc_generated_files/calibration.c: 51:  PMCON1bits.CALSEL = 1;
  2377                           	bsf	status, 5	;RP0=1, select bank3
  2378  04F4  1683               	bsf	status, 6	;RP1=1, select bank3
  2379  04F5  1703               	bsf	(400)^0180h,6	;volatile
  2380  04F6  1710               	line	53
  2381                           	
  2382                           l1116:	
  2383  04F7                     ;mcc_generated_files/calibration.c: 53:     PMADRH = 0x20;
  2384                           	movlw	low(020h)
  2385  04F7  3020               	movwf	(403)^0180h	;volatile
  2386  04F8  0093               	line	55
  2387                           ;mcc_generated_files/calibration.c: 55:     PMADRL = 0x80;
  2388                           	movlw	low(080h)
  2389  04F9  3080               	movwf	(402)^0180h	;volatile
  2390  04FA  0092               	line	56
  2391                           	
  2392                           l1118:	
  2393  04FB                     ;mcc_generated_files/calibration.c: 56:     PMCON1bits.RD = 1;
  2394                           	bsf	(400)^0180h,0	;volatile
  2395  04FB  1410               	line	57
  2396                           	
  2397                           l1120:	
  2398  04FC                     ;mcc_generated_files/calibration.c: 57:     __nop();
  2399                           	opt	asmopt_push
  2400                           	opt	asmopt_off
  2401                           	nop
  2402  04FC  0000               	opt	asmopt_pop
  2403                           	line	58
  2404                           	
  2405                           l1122:	
  2406  04FD                     ;mcc_generated_files/calibration.c: 58:     __nop();
  2407                           	opt	asmopt_push
  2408                           	opt	asmopt_off
  2409                           	nop
  2410  04FD  0000               	opt	asmopt_pop
  2411                           	line	59
  2412                           ;mcc_generated_files/calibration.c: 59:     DCSCAL1 = (uint8_t)(PMDATH);
  2413                           	bsf	status, 5	;RP0=1, select bank3
  2414  04FE  1683               	bsf	status, 6	;RP1=1, select bank3
  2415  04FF  1703               	movf	(405)^0180h,w	;volatile
  2416  0500  0815               	movwf	(408)^0180h	;volatile
  2417  0501  0098               	line	60
  2418                           ;mcc_generated_files/calibration.c: 60:     GMCAL1 = (uint8_t)(PMDATL);
  2419                           	movf	(404)^0180h,w	;volatile
  2420  0502  0814               	movwf	(406)^0180h	;volatile
  2421  0503  0096               	line	63
  2422                           ;mcc_generated_files/calibration.c: 63:     PMADRL = 0x81;
  2423                           	movlw	low(081h)
  2424  0504  3081               	movwf	(402)^0180h	;volatile
  2425  0505  0092               	line	64
  2426                           	
  2427                           l1124:	
  2428  0506                     ;mcc_generated_files/calibration.c: 64:     PMCON1bits.RD = 1;
  2429                           	bsf	(400)^0180h,0	;volatile
  2430  0506  1410               	line	65
  2431                           	
  2432                           l1126:	
  2433  0507                     ;mcc_generated_files/calibration.c: 65:     __nop();
  2434                           	opt	asmopt_push
  2435                           	opt	asmopt_off
  2436                           	nop
  2437  0507  0000               	opt	asmopt_pop
  2438                           	line	66
  2439                           	
  2440                           l1128:	
  2441  0508                     ;mcc_generated_files/calibration.c: 66:     __nop();
  2442                           	opt	asmopt_push
  2443                           	opt	asmopt_off
  2444                           	nop
  2445  0508  0000               	opt	asmopt_pop
  2446                           	line	67
  2447                           ;mcc_generated_files/calibration.c: 67:     DCSCAL2 = (uint8_t)(PMDATH);
  2448                           	bsf	status, 5	;RP0=1, select bank3
  2449  0509  1683               	bsf	status, 6	;RP1=1, select bank3
  2450  050A  1703               	movf	(405)^0180h,w	;volatile
  2451  050B  0815               	movwf	(409)^0180h	;volatile
  2452  050C  0099               	line	68
  2453                           ;mcc_generated_files/calibration.c: 68:     GMCAL2 = (uint8_t)(PMDATL);
  2454                           	movf	(404)^0180h,w	;volatile
  2455  050D  0814               	movwf	(407)^0180h	;volatile
  2456  050E  0097               	line	71
  2457                           ;mcc_generated_files/calibration.c: 71:     PMADRL = 0x82;
  2458                           	movlw	low(082h)
  2459  050F  3082               	movwf	(402)^0180h	;volatile
  2460  0510  0092               	line	72
  2461                           	
  2462                           l1130:	
  2463  0511                     ;mcc_generated_files/calibration.c: 72:     PMCON1bits.RD = 1;
  2464                           	bsf	(400)^0180h,0	;volatile
  2465  0511  1410               	line	73
  2466                           	
  2467                           l1132:	
  2468  0512                     ;mcc_generated_files/calibration.c: 73:     __nop();
  2469                           	opt	asmopt_push
  2470                           	opt	asmopt_off
  2471                           	nop
  2472  0512  0000               	opt	asmopt_pop
  2473                           	line	74
  2474                           	
  2475                           l1134:	
  2476  0513                     ;mcc_generated_files/calibration.c: 74:     __nop();
  2477                           	opt	asmopt_push
  2478                           	opt	asmopt_off
  2479                           	nop
  2480  0513  0000               	opt	asmopt_pop
  2481                           	line	75
  2482                           ;mcc_generated_files/calibration.c: 75:     VRCAL = (uint8_t)(PMDATH);
  2483                           	bsf	status, 5	;RP0=1, select bank3
  2484  0514  1683               	bsf	status, 6	;RP1=1, select bank3
  2485  0515  1703               	movf	(405)^0180h,w	;volatile
  2486  0516  0815               	movwf	(413)^0180h	;volatile
  2487  0517  009D               	line	76
  2488                           ;mcc_generated_files/calibration.c: 76:     DACBGRCAL = (uint8_t)(PMDATL);
  2489                           	movf	(404)^0180h,w	;volatile
  2490  0518  0814               	movwf	(411)^0180h	;volatile
  2491  0519  009B               	line	79
  2492                           ;mcc_generated_files/calibration.c: 79:     PMADRL = 0x83;
  2493                           	movlw	low(083h)
  2494  051A  3083               	movwf	(402)^0180h	;volatile
  2495  051B  0092               	line	80
  2496                           	
  2497                           l1136:	
  2498  051C                     ;mcc_generated_files/calibration.c: 80:     PMCON1bits.RD = 1;
  2499                           	bsf	(400)^0180h,0	;volatile
  2500  051C  1410               	line	81
  2501                           	
  2502                           l1138:	
  2503  051D                     ;mcc_generated_files/calibration.c: 81:     __nop();
  2504                           	opt	asmopt_push
  2505                           	opt	asmopt_off
  2506                           	nop
  2507  051D  0000               	opt	asmopt_pop
  2508                           	line	82
  2509                           	
  2510                           l1140:	
  2511  051E                     ;mcc_generated_files/calibration.c: 82:     __nop();
  2512                           	opt	asmopt_push
  2513                           	opt	asmopt_off
  2514                           	nop
  2515  051E  0000               	opt	asmopt_pop
  2516                           	line	83
  2517                           ;mcc_generated_files/calibration.c: 83:     PDSCAL = (uint8_t)(PMDATH);
  2518                           	bsf	status, 5	;RP0=1, select bank3
  2519  051F  1683               	bsf	status, 6	;RP1=1, select bank3
  2520  0520  1703               	movf	(405)^0180h,w	;volatile
  2521  0521  0815               	movwf	(412)^0180h	;volatile
  2522  0522  009C               	line	84
  2523                           	
  2524                           l1142:	
  2525  0523                     ;mcc_generated_files/calibration.c: 84:     ADBT = (uint8_t)((PMDATL >> 4) & 0xF);
  2526                           	movf	(404)^0180h,w	;volatile
  2527  0523  0814               	movwf	(??_init_Calibration+0)+0
  2528  0524  00F0               	movlw	04h
  2529  0525  3004               u375:
  2530  0526                     	clrc
  2531  0526  1003               	rrf	(??_init_Calibration+0)+0,f
  2532  0527  0CF0               	addlw	-1
  2533  0528  3EFF               	skipz
  2534  0529  1D03               	goto	u375
  2535  052A  2D26               	movf	0+(??_init_Calibration+0)+0,w
  2536  052B  0870               	andlw	0Fh
  2537  052C  390F               	movwf	(410)^0180h	;volatile
  2538  052D  009A               	line	85
  2539                           	
  2540                           l1144:	
  2541  052E                     ;mcc_generated_files/calibration.c: 85:     TTCAL = (uint8_t)(PMDATL & 0xF);
  2542                           	movf	(404)^0180h,w	;volatile
  2543  052E  0814               	andlw	0Fh
  2544  052F  390F               	bsf	status, 5	;RP0=1, select bank1
  2545  0530  1683               	bcf	status, 6	;RP1=0, select bank1
  2546  0531  1303               	movwf	(155)^080h	;volatile
  2547  0532  009B               	line	88
  2548                           	
  2549                           l1146:	
  2550  0533                     ;mcc_generated_files/calibration.c: 88:     PMADRL = 0x84;
  2551                           	movlw	low(084h)
  2552  0533  3084               	bsf	status, 5	;RP0=1, select bank3
  2553  0534  1683               	bsf	status, 6	;RP1=1, select bank3
  2554  0535  1703               	movwf	(402)^0180h	;volatile
  2555  0536  0092               	line	89
  2556                           	
  2557                           l1148:	
  2558  0537                     ;mcc_generated_files/calibration.c: 89:     PMCON1bits.RD = 1;
  2559                           	bsf	(400)^0180h,0	;volatile
  2560  0537  1410               	line	90
  2561                           	
  2562                           l1150:	
  2563  0538                     ;mcc_generated_files/calibration.c: 90:     __nop();
  2564                           	opt	asmopt_push
  2565                           	opt	asmopt_off
  2566                           	nop
  2567  0538  0000               	opt	asmopt_pop
  2568                           	line	91
  2569                           	
  2570                           l1152:	
  2571  0539                     ;mcc_generated_files/calibration.c: 91:     __nop();
  2572                           	opt	asmopt_push
  2573                           	opt	asmopt_off
  2574                           	nop
  2575  0539  0000               	opt	asmopt_pop
  2576                           	line	92
  2577                           	
  2578                           l1154:	
  2579  053A                     ;mcc_generated_files/calibration.c: 92:     TANA = (uint16_t)(PMDAT);
  2580                           	bsf	status, 5	;RP0=1, select bank3
  2581  053A  1683               	bsf	status, 6	;RP1=1, select bank3
  2582  053B  1703               	movf	(404+1)^0180h,w	;volatile
  2583  053C  0815               	bcf	status, 5	;RP0=0, select bank0
  2584  053D  1283               	bcf	status, 6	;RP1=0, select bank0
  2585  053E  1303               	movwf	(_TANA+1)
  2586  053F  00AC               	bsf	status, 5	;RP0=1, select bank3
  2587  0540  1683               	bsf	status, 6	;RP1=1, select bank3
  2588  0541  1703               	movf	(404)^0180h,w	;volatile
  2589  0542  0814               	bcf	status, 5	;RP0=0, select bank0
  2590  0543  1283               	bcf	status, 6	;RP1=0, select bank0
  2591  0544  1303               	movwf	(_TANA)
  2592  0545  00AB               	line	95
  2593                           	
  2594                           l1156:	
  2595  0546                     ;mcc_generated_files/calibration.c: 95:     PMADRL = 0x85;
  2596                           	movlw	low(085h)
  2597  0546  3085               	bsf	status, 5	;RP0=1, select bank3
  2598  0547  1683               	bsf	status, 6	;RP1=1, select bank3
  2599  0548  1703               	movwf	(402)^0180h	;volatile
  2600  0549  0092               	line	96
  2601                           	
  2602                           l1158:	
  2603  054A                     ;mcc_generated_files/calibration.c: 96:     PMCON1bits.RD = 1;
  2604                           	bsf	(400)^0180h,0	;volatile
  2605  054A  1410               	line	97
  2606                           	
  2607                           l1160:	
  2608  054B                     ;mcc_generated_files/calibration.c: 97:     __nop();
  2609                           	opt	asmopt_push
  2610                           	opt	asmopt_off
  2611                           	nop
  2612  054B  0000               	opt	asmopt_pop
  2613                           	line	98
  2614                           	
  2615                           l1162:	
  2616  054C                     ;mcc_generated_files/calibration.c: 98:     __nop();
  2617                           	opt	asmopt_push
  2618                           	opt	asmopt_off
  2619                           	nop
  2620  054C  0000               	opt	asmopt_pop
  2621                           	line	99
  2622                           	
  2623                           l1164:	
  2624  054D                     ;mcc_generated_files/calibration.c: 99:     OSCCAL = (uint8_t)(PMDATL);
  2625                           	bsf	status, 5	;RP0=1, select bank3
  2626  054D  1683               	bsf	status, 6	;RP1=1, select bank3
  2627  054E  1703               	movf	(404)^0180h,w	;volatile
  2628  054F  0814               	movwf	(414)^0180h	;volatile
  2629  0550  009E               	line	102
  2630                           	
  2631                           l1166:	
  2632  0551                     ;mcc_generated_files/calibration.c: 102:     PMADRL = 0x86;
  2633                           	movlw	low(086h)
  2634  0551  3086               	movwf	(402)^0180h	;volatile
  2635  0552  0092               	line	103
  2636                           	
  2637                           l1168:	
  2638  0553                     ;mcc_generated_files/calibration.c: 103:     PMCON1bits.RD = 1;
  2639                           	bsf	(400)^0180h,0	;volatile
  2640  0553  1410               	line	104
  2641                           	
  2642                           l1170:	
  2643  0554                     ;mcc_generated_files/calibration.c: 104:     __nop();
  2644                           	opt	asmopt_push
  2645                           	opt	asmopt_off
  2646                           	nop
  2647  0554  0000               	opt	asmopt_pop
  2648                           	line	105
  2649                           	
  2650                           l1172:	
  2651  0555                     ;mcc_generated_files/calibration.c: 105:     __nop();
  2652                           	opt	asmopt_push
  2653                           	opt	asmopt_off
  2654                           	nop
  2655  0555  0000               	opt	asmopt_pop
  2656                           	line	106
  2657                           	
  2658                           l1174:	
  2659  0556                     ;mcc_generated_files/calibration.c: 106:     EACAL2 = (uint8_t)(PMDATL);
  2660                           	bsf	status, 5	;RP0=1, select bank3
  2661  0556  1683               	bsf	status, 6	;RP1=1, select bank3
  2662  0557  1703               	movf	(404)^0180h,w	;volatile
  2663  0558  0814               	movwf	(406)^0180h	;volatile
  2664  0559  0096               	line	109
  2665                           	
  2666                           l1176:	
  2667  055A                     ;mcc_generated_files/calibration.c: 109:     PMADRL = 0x88;
  2668                           	movlw	low(088h)
  2669  055A  3088               	movwf	(402)^0180h	;volatile
  2670  055B  0092               	line	110
  2671                           	
  2672                           l1178:	
  2673  055C                     ;mcc_generated_files/calibration.c: 110:     PMCON1bits.RD = 1;
  2674                           	bsf	(400)^0180h,0	;volatile
  2675  055C  1410               	line	111
  2676                           	
  2677                           l1180:	
  2678  055D                     ;mcc_generated_files/calibration.c: 111:     __nop();
  2679                           	opt	asmopt_push
  2680                           	opt	asmopt_off
  2681                           	nop
  2682  055D  0000               	opt	asmopt_pop
  2683                           	line	112
  2684                           	
  2685                           l1182:	
  2686  055E                     ;mcc_generated_files/calibration.c: 112:     __nop();
  2687                           	opt	asmopt_push
  2688                           	opt	asmopt_off
  2689                           	nop
  2690  055E  0000               	opt	asmopt_pop
  2691                           	line	113
  2692                           	
  2693                           l1184:	
  2694  055F                     ;mcc_generated_files/calibration.c: 113:     DACCAL2 = (uint8_t)(PMDATL);
  2695                           	bsf	status, 5	;RP0=1, select bank3
  2696  055F  1683               	bsf	status, 6	;RP1=1, select bank3
  2697  0560  1703               	movf	(404)^0180h,w	;volatile
  2698  0561  0814               	movwf	(409)^0180h	;volatile
  2699  0562  0099               	line	116
  2700                           	
  2701                           l1186:	
  2702  0563                     ;mcc_generated_files/calibration.c: 116:     PMADRL = 0x89;
  2703                           	movlw	low(089h)
  2704  0563  3089               	movwf	(402)^0180h	;volatile
  2705  0564  0092               	line	117
  2706                           	
  2707                           l1188:	
  2708  0565                     ;mcc_generated_files/calibration.c: 117:     PMCON1bits.RD = 1;
  2709                           	bsf	(400)^0180h,0	;volatile
  2710  0565  1410               	line	118
  2711                           	
  2712                           l1190:	
  2713  0566                     ;mcc_generated_files/calibration.c: 118:     __nop();
  2714                           	opt	asmopt_push
  2715                           	opt	asmopt_off
  2716                           	nop
  2717  0566  0000               	opt	asmopt_pop
  2718                           	line	119
  2719                           	
  2720                           l1192:	
  2721  0567                     ;mcc_generated_files/calibration.c: 119:     __nop();
  2722                           	opt	asmopt_push
  2723                           	opt	asmopt_off
  2724                           	nop
  2725  0567  0000               	opt	asmopt_pop
  2726                           	line	120
  2727                           	
  2728                           l1194:	
  2729  0568                     ;mcc_generated_files/calibration.c: 120:     DACCAL1 = (uint8_t)(PMDATL);
  2730                           	bsf	status, 5	;RP0=1, select bank3
  2731  0568  1683               	bsf	status, 6	;RP1=1, select bank3
  2732  0569  1703               	movf	(404)^0180h,w	;volatile
  2733  056A  0814               	movwf	(408)^0180h	;volatile
  2734  056B  0098               	line	123
  2735                           	
  2736                           l1196:	
  2737  056C                     ;mcc_generated_files/calibration.c: 123:     PMADRL = 0x8A;
  2738                           	movlw	low(08Ah)
  2739  056C  308A               	movwf	(402)^0180h	;volatile
  2740  056D  0092               	line	124
  2741                           	
  2742                           l1198:	
  2743  056E                     ;mcc_generated_files/calibration.c: 124:     PMCON1bits.RD = 1;
  2744                           	bsf	(400)^0180h,0	;volatile
  2745  056E  1410               	line	125
  2746                           	
  2747                           l1200:	
  2748  056F                     ;mcc_generated_files/calibration.c: 125:     __nop();
  2749                           	opt	asmopt_push
  2750                           	opt	asmopt_off
  2751                           	nop
  2752  056F  0000               	opt	asmopt_pop
  2753                           	line	126
  2754                           	
  2755                           l1202:	
  2756  0570                     ;mcc_generated_files/calibration.c: 126:     __nop();
  2757                           	opt	asmopt_push
  2758                           	opt	asmopt_off
  2759                           	nop
  2760  0570  0000               	opt	asmopt_pop
  2761                           	line	127
  2762                           	
  2763                           l1204:	
  2764  0571                     ;mcc_generated_files/calibration.c: 127:     EACAL1 = (uint8_t)(PMDATL);
  2765                           	bsf	status, 5	;RP0=1, select bank3
  2766  0571  1683               	bsf	status, 6	;RP1=1, select bank3
  2767  0572  1703               	movf	(404)^0180h,w	;volatile
  2768  0573  0814               	movwf	(410)^0180h	;volatile
  2769  0574  009A               	line	130
  2770                           	
  2771                           l1206:	
  2772  0575                     ;mcc_generated_files/calibration.c: 130:     PMADRL = 0x8B;
  2773                           	movlw	low(08Bh)
  2774  0575  308B               	movwf	(402)^0180h	;volatile
  2775  0576  0092               	line	131
  2776                           	
  2777                           l1208:	
  2778  0577                     ;mcc_generated_files/calibration.c: 131:     PMCON1bits.RD = 1;
  2779                           	bsf	(400)^0180h,0	;volatile
  2780  0577  1410               	line	132
  2781                           	
  2782                           l1210:	
  2783  0578                     ;mcc_generated_files/calibration.c: 132:     __nop();
  2784                           	opt	asmopt_push
  2785                           	opt	asmopt_off
  2786                           	nop
  2787  0578  0000               	opt	asmopt_pop
  2788                           	line	133
  2789                           	
  2790                           l1212:	
  2791  0579                     ;mcc_generated_files/calibration.c: 133:     __nop();
  2792                           	opt	asmopt_push
  2793                           	opt	asmopt_off
  2794                           	nop
  2795  0579  0000               	opt	asmopt_pop
  2796                           	line	134
  2797                           	
  2798                           l1214:	
  2799  057A                     ;mcc_generated_files/calibration.c: 134:     GAIN1 = (uint16_t)(PMDAT & 0x3FF);
  2800                           	movlw	0FFh
  2801  057A  30FF               	bsf	status, 5	;RP0=1, select bank3
  2802  057B  1683               	bsf	status, 6	;RP1=1, select bank3
  2803  057C  1703               	andwf	(404)^0180h,w	;volatile
  2804  057D  0514               	movwf	(??_init_Calibration+0)+0
  2805  057E  00F0               	movlw	03h
  2806  057F  3003               	andwf	(404+1)^0180h,w	;volatile
  2807  0580  0515               	movwf	1+(??_init_Calibration+0)+0
  2808  0581  00F1               	movf	0+(??_init_Calibration+0)+0,w
  2809  0582  0870               	bcf	status, 5	;RP0=0, select bank0
  2810  0583  1283               	bcf	status, 6	;RP1=0, select bank0
  2811  0584  1303               	movwf	(_GAIN1)
  2812  0585  00A9               	movf	1+(??_init_Calibration+0)+0,w
  2813  0586  0871               	movwf	(_GAIN1+1)
  2814  0587  00AA               	line	137
  2815                           	
  2816                           l1216:	
  2817  0588                     ;mcc_generated_files/calibration.c: 137:     PMADRL = 0x8C;
  2818                           	movlw	low(08Ch)
  2819  0588  308C               	bsf	status, 5	;RP0=1, select bank3
  2820  0589  1683               	bsf	status, 6	;RP1=1, select bank3
  2821  058A  1703               	movwf	(402)^0180h	;volatile
  2822  058B  0092               	line	138
  2823                           	
  2824                           l1218:	
  2825  058C                     ;mcc_generated_files/calibration.c: 138:     PMCON1bits.RD = 1;
  2826                           	bsf	(400)^0180h,0	;volatile
  2827  058C  1410               	line	139
  2828                           	
  2829                           l1220:	
  2830  058D                     ;mcc_generated_files/calibration.c: 139:     __nop();
  2831                           	opt	asmopt_push
  2832                           	opt	asmopt_off
  2833                           	nop
  2834  058D  0000               	opt	asmopt_pop
  2835                           	line	140
  2836                           	
  2837                           l1222:	
  2838  058E                     ;mcc_generated_files/calibration.c: 140:     __nop();
  2839                           	opt	asmopt_push
  2840                           	opt	asmopt_off
  2841                           	nop
  2842  058E  0000               	opt	asmopt_pop
  2843                           	line	141
  2844                           	
  2845                           l1224:	
  2846  058F                     ;mcc_generated_files/calibration.c: 141:     GAIN2 = (uint16_t)(PMDAT & 0x3FF);
  2847                           	movlw	0FFh
  2848  058F  30FF               	bsf	status, 5	;RP0=1, select bank3
  2849  0590  1683               	bsf	status, 6	;RP1=1, select bank3
  2850  0591  1703               	andwf	(404)^0180h,w	;volatile
  2851  0592  0514               	movwf	(??_init_Calibration+0)+0
  2852  0593  00F0               	movlw	03h
  2853  0594  3003               	andwf	(404+1)^0180h,w	;volatile
  2854  0595  0515               	movwf	1+(??_init_Calibration+0)+0
  2855  0596  00F1               	movf	0+(??_init_Calibration+0)+0,w
  2856  0597  0870               	bcf	status, 5	;RP0=0, select bank0
  2857  0598  1283               	bcf	status, 6	;RP1=0, select bank0
  2858  0599  1303               	movwf	(_GAIN2)
  2859  059A  00A7               	movf	1+(??_init_Calibration+0)+0,w
  2860  059B  0871               	movwf	(_GAIN2+1)
  2861  059C  00A8               	line	144
  2862                           	
  2863                           l51:	
  2864  059D                     	return
  2865  059D  0008               	opt stack 0
  2866                           GLOBAL	__end_of_init_Calibration
  2867                           	__end_of_init_Calibration:
  2868  059E                     	signat	_init_Calibration,89
  2869                           	global	_PIN_MANAGER_Initialize
  2870                           
  2871 ;; *************** function _PIN_MANAGER_Initialize *****************
  2872 ;; Defined at:
  2873 ;;		line 50 in file "mcc_generated_files/pin_manager.c"
  2874 ;; Parameters:    Size  Location     Type
  2875 ;;		None
  2876 ;; Auto vars:     Size  Location     Type
  2877 ;;		None
  2878 ;; Return value:  Size  Location     Type
  2879 ;;                  1    wreg      void 
  2880 ;; Registers used:
  2881 ;;		wreg, status,2
  2882 ;; Tracked objects:
  2883 ;;		On entry : 0/0
  2884 ;;		On exit  : 0/0
  2885 ;;		Unchanged: 0/0
  2886 ;; Data sizes:     COMMON   BANK0   BANK1   BANK2
  2887 ;;      Params:         0       0       0       0
  2888 ;;      Locals:         0       0       0       0
  2889 ;;      Temps:          0       0       0       0
  2890 ;;      Totals:         0       0       0       0
  2891 ;;Total ram usage:        0 bytes
  2892 ;; Hardware stack levels used:    1
  2893 ;; This function calls:
  2894 ;;		Nothing
  2895 ;; This function is called by:
  2896 ;;		_SYSTEM_Initialize
  2897 ;; This function uses a non-reentrant model
  2898 ;;
  2899                           psect	text5,local,class=CODE,delta=2,merge=1,group=0
  2900                           	file	"mcc_generated_files/pin_manager.c"
  2901                           	line	50
  2902                           global __ptext5
  2903                           __ptext5:	;psect for function _PIN_MANAGER_Initialize
  2904  03F5                     psect	text5
  2905                           	file	"mcc_generated_files/pin_manager.c"
  2906                           	line	50
  2907                           	global	__size_of_PIN_MANAGER_Initialize
  2908                           	__size_of_PIN_MANAGER_Initialize	equ	__end_of_PIN_MANAGER_Initialize-_PIN_MANAGER_Initi
                                 alize
  2909  0014                     	
  2910                           _PIN_MANAGER_Initialize:	
  2911  03F5                     ;incstack = 0
  2912                           	opt	stack 6
  2913                           ; Regs used in _PIN_MANAGER_Initialize: [wreg+status,2]
  2914                           	line	55
  2915                           	
  2916                           l986:	
  2917  03F5                     ;mcc_generated_files/pin_manager.c: 55:     PORTGPB = 0x00;
  2918                           	bcf	status, 5	;RP0=0, select bank0
  2919  03F5  1283               	bcf	status, 6	;RP1=0, select bank0
  2920  03F6  1303               	clrf	(6)	;volatile
  2921  03F7  0186               	line	56
  2922                           ;mcc_generated_files/pin_manager.c: 56:     PORTGPA = 0x00;
  2923                           	clrf	(5)	;volatile
  2924  03F8  0185               	line	61
  2925                           	
  2926                           l988:	
  2927  03F9                     ;mcc_generated_files/pin_manager.c: 61:     TRISGPA = 0xEF;
  2928                           	movlw	low(0EFh)
  2929  03F9  30EF               	bsf	status, 5	;RP0=1, select bank1
  2930  03FA  1683               	bcf	status, 6	;RP1=0, select bank1
  2931  03FB  1303               	movwf	(133)^080h	;volatile
  2932  03FC  0085               	line	62
  2933                           	
  2934                           l990:	
  2935  03FD                     ;mcc_generated_files/pin_manager.c: 62:     TRISGPB = 0xF3;
  2936                           	movlw	low(0F3h)
  2937  03FD  30F3               	movwf	(134)^080h	;volatile
  2938  03FE  0086               	line	68
  2939                           	
  2940                           l992:	
  2941  03FF                     ;mcc_generated_files/pin_manager.c: 68:     WPUGPA = 0xEF;
  2942                           	movlw	low(0EFh)
  2943  03FF  30EF               	bcf	status, 5	;RP0=0, select bank2
  2944  0400  1283               	bsf	status, 6	;RP1=1, select bank2
  2945  0401  1703               	movwf	(261)^0100h	;volatile
  2946  0402  0085               	line	69
  2947                           	
  2948                           l994:	
  2949  0403                     ;mcc_generated_files/pin_manager.c: 69:     WPUGPB = 0xF3;
  2950                           	movlw	low(0F3h)
  2951  0403  30F3               	movwf	(262)^0100h	;volatile
  2952  0404  0086               	line	70
  2953                           	
  2954                           l996:	
  2955  0405                     ;mcc_generated_files/pin_manager.c: 70:     OPTION_REGbits.nRAPUI = 0;
  2956                           	bsf	status, 5	;RP0=1, select bank1
  2957  0405  1683               	bcf	status, 6	;RP1=0, select bank1
  2958  0406  1303               	bcf	(129)^080h,7	;volatile
  2959  0407  1381               	line	71
  2960                           	
  2961                           l103:	
  2962  0408                     	return
  2963  0408  0008               	opt stack 0
  2964                           GLOBAL	__end_of_PIN_MANAGER_Initialize
  2965                           	__end_of_PIN_MANAGER_Initialize:
  2966  0409                     	signat	_PIN_MANAGER_Initialize,89
  2967                           	global	_OSCILLATOR_Initialize
  2968                           
  2969 ;; *************** function _OSCILLATOR_Initialize *****************
  2970 ;; Defined at:
  2971 ;;		line 66 in file "mcc_generated_files/mcc.c"
  2972 ;; Parameters:    Size  Location     Type
  2973 ;;		None
  2974 ;; Auto vars:     Size  Location     Type
  2975 ;;		None
  2976 ;; Return value:  Size  Location     Type
  2977 ;;                  1    wreg      void 
  2978 ;; Registers used:
  2979 ;;		wreg, status,2
  2980 ;; Tracked objects:
  2981 ;;		On entry : 0/0
  2982 ;;		On exit  : 0/0
  2983 ;;		Unchanged: 0/0
  2984 ;; Data sizes:     COMMON   BANK0   BANK1   BANK2
  2985 ;;      Params:         0       0       0       0
  2986 ;;      Locals:         0       0       0       0
  2987 ;;      Temps:          0       0       0       0
  2988 ;;      Totals:         0       0       0       0
  2989 ;;Total ram usage:        0 bytes
  2990 ;; Hardware stack levels used:    1
  2991 ;; This function calls:
  2992 ;;		Nothing
  2993 ;; This function is called by:
  2994 ;;		_SYSTEM_Initialize
  2995 ;; This function uses a non-reentrant model
  2996 ;;
  2997                           psect	text6,local,class=CODE,delta=2,merge=1,group=0
  2998                           	file	"mcc_generated_files/mcc.c"
  2999                           	line	66
  3000                           global __ptext6
  3001                           __ptext6:	;psect for function _OSCILLATOR_Initialize
  3002  03DA                     psect	text6
  3003                           	file	"mcc_generated_files/mcc.c"
  3004                           	line	66
  3005                           	global	__size_of_OSCILLATOR_Initialize
  3006                           	__size_of_OSCILLATOR_Initialize	equ	__end_of_OSCILLATOR_Initialize-_OSCILLATOR_Initiali
                                 ze
  3007  0008                     	
  3008                           _OSCILLATOR_Initialize:	
  3009  03DA                     ;incstack = 0
  3010                           	opt	stack 6
  3011                           ; Regs used in _OSCILLATOR_Initialize: [wreg+status,2]
  3012                           	line	69
  3013                           	
  3014                           l1004:	
  3015  03DA                     ;mcc_generated_files/mcc.c: 69:     T2CON = 0x0;
  3016                           	bcf	status, 5	;RP0=0, select bank0
  3017  03DA  1283               	bcf	status, 6	;RP1=0, select bank0
  3018  03DB  1303               	clrf	(16)	;volatile
  3019  03DC  0190               	line	71
  3020                           	
  3021                           l1006:	
  3022  03DD                     ;mcc_generated_files/mcc.c: 71:     PR2 = 0x16;
  3023                           	movlw	low(016h)
  3024  03DD  3016               	movwf	(17)	;volatile
  3025  03DE  0091               	line	73
  3026                           	
  3027                           l1008:	
  3028  03DF                     ;mcc_generated_files/mcc.c: 73:     TMR2 = 0x0;
  3029                           	clrf	(15)	;volatile
  3030  03DF  018F               	line	76
  3031                           	
  3032                           l1010:	
  3033  03E0                     ;mcc_generated_files/mcc.c: 76:     T2CONbits.TMR2ON = 1;
  3034                           	bsf	(16),2	;volatile
  3035  03E0  1510               	line	77
  3036                           	
  3037                           l83:	
  3038  03E1                     	return
  3039  03E1  0008               	opt stack 0
  3040                           GLOBAL	__end_of_OSCILLATOR_Initialize
  3041                           	__end_of_OSCILLATOR_Initialize:
  3042  03E2                     	signat	_OSCILLATOR_Initialize,89
  3043                           	global	_IVOUT2_Initialize
  3044                           
  3045 ;; *************** function _IVOUT2_Initialize *****************
  3046 ;; Defined at:
  3047 ;;		line 58 in file "mcc_generated_files/ivout2.c"
  3048 ;; Parameters:    Size  Location     Type
  3049 ;;		None
  3050 ;; Auto vars:     Size  Location     Type
  3051 ;;  target          1   13[COMMON] unsigned char 
  3052 ;; Return value:  Size  Location     Type
  3053 ;;                  1    wreg      void 
  3054 ;; Registers used:
  3055 ;;		wreg, status,2, status,0, pclath, cstack
  3056 ;; Tracked objects:
  3057 ;;		On entry : 0/0
  3058 ;;		On exit  : 0/0
  3059 ;;		Unchanged: 0/0
  3060 ;; Data sizes:     COMMON   BANK0   BANK1   BANK2
  3061 ;;      Params:         0       0       0       0
  3062 ;;      Locals:         1       0       0       0
  3063 ;;      Temps:          1       0       0       0
  3064 ;;      Totals:         2       0       0       0
  3065 ;;Total ram usage:        2 bytes
  3066 ;; Hardware stack levels used:    1
  3067 ;; Hardware stack levels required when called:    2
  3068 ;; This function calls:
  3069 ;;		_IVOUT2_SetOutput
  3070 ;; This function is called by:
  3071 ;;		_SYSTEM_Initialize
  3072 ;; This function uses a non-reentrant model
  3073 ;;
  3074                           psect	text7,local,class=CODE,delta=2,merge=1,group=0
  3075                           	file	"mcc_generated_files/ivout2.c"
  3076                           	line	58
  3077                           global __ptext7
  3078                           __ptext7:	;psect for function _IVOUT2_Initialize
  3079  046A                     psect	text7
  3080                           	file	"mcc_generated_files/ivout2.c"
  3081                           	line	58
  3082                           	global	__size_of_IVOUT2_Initialize
  3083                           	__size_of_IVOUT2_Initialize	equ	__end_of_IVOUT2_Initialize-_IVOUT2_Initialize
  3084  0027                     	
  3085                           _IVOUT2_Initialize:	
  3086  046A                     ;incstack = 0
  3087                           	opt	stack 4
  3088                           ; Regs used in _IVOUT2_Initialize: [wreg+status,2+status,0+pclath+cstack]
  3089                           	line	61
  3090                           	
  3091                           l1352:	
  3092  046A                     ;mcc_generated_files/ivout2.c: 61:     ICOACONbits.IC2OAC = 0x04;
  3093                           	bsf	status, 5	;RP0=1, select bank1
  3094  046A  1683               	bcf	status, 6	;RP1=0, select bank1
  3095  046B  1303               	movf	(158)^080h,w	;volatile
  3096  046C  081E               	andlw	not (((1<<4)-1)<<0)
  3097  046D  39F0               	iorlw	(04h & ((1<<4)-1))<<0
  3098  046E  3804               	movwf	(158)^080h	;volatile
  3099  046F  009E               	line	63
  3100                           ;mcc_generated_files/ivout2.c: 63:     ICLEBCONbits.IC2LEBC = 0x01;
  3101                           	movf	(159)^080h,w	;volatile
  3102  0470  081F               	andlw	not (((1<<2)-1)<<0)
  3103  0471  39FC               	iorlw	(01h & ((1<<2)-1))<<0
  3104  0472  3801               	movwf	(159)^080h	;volatile
  3105  0473  009F               	line	65
  3106                           	
  3107                           l1354:	
  3108  0474                     ;mcc_generated_files/ivout2.c: 65:     LOOPCON2 = 0x0;
  3109                           	clrf	(154)^080h	;volatile
  3110  0474  019A               	line	67
  3111                           	
  3112                           l1356:	
  3113  0475                     ;mcc_generated_files/ivout2.c: 67:     CREFCON2 = 0;
  3114                           	clrf	(144)^080h	;volatile
  3115  0475  0190               	line	69
  3116                           	
  3117                           l1358:	
  3118  0476                     ;mcc_generated_files/ivout2.c: 69:     PE1bits.PDRV2EN = 0x00;
  3119                           	bcf	status, 5	;RP0=0, select bank2
  3120  0476  1283               	bsf	status, 6	;RP1=1, select bank2
  3121  0477  1703               	bcf	(263)^0100h,6	;volatile
  3122  0478  1307               	line	71
  3123                           	
  3124                           l1360:	
  3125  0479                     ;mcc_generated_files/ivout2.c: 71:     ABECON2bits.EA1DIS2 = 0x01;
  3126                           	bsf	(269)^0100h,2	;volatile
  3127  0479  150D               	line	72
  3128                           	
  3129                           l1362:	
  3130  047A                     ;mcc_generated_files/ivout2.c: 72:     ABECON2bits.EA2DIS2 = 0x01;
  3131                           	bsf	(269)^0100h,1	;volatile
  3132  047A  148D               	line	74
  3133                           	
  3134                           l1364:	
  3135  047B                     ;mcc_generated_files/ivout2.c: 74:     VREFCON2 = 0;
  3136                           	bsf	status, 5	;RP0=1, select bank1
  3137  047B  1683               	bcf	status, 6	;RP1=0, select bank1
  3138  047C  1303               	clrf	(146)^080h	;volatile
  3139  047D  0192               	line	76
  3140                           	
  3141                           l1366:	
  3142  047E                     ;mcc_generated_files/ivout2.c: 76:     PWM2RL = 0;
  3143                           	bcf	status, 5	;RP0=0, select bank0
  3144  047E  1283               	bcf	status, 6	;RP1=0, select bank0
  3145  047F  1303               	clrf	(21)	;volatile
  3146  0480  0195               	line	78
  3147                           	
  3148                           l1368:	
  3149  0481                     ;mcc_generated_files/ivout2.c: 78:     PWM2PHL = 0x0;
  3150                           	clrf	(19)	;volatile
  3151  0481  0193               	line	80
  3152                           	
  3153                           l1370:	
  3154  0482                     ;mcc_generated_files/ivout2.c: 80:     SLPCRCON2 = 0xE;
  3155                           	movlw	low(0Eh)
  3156  0482  300E               	bsf	status, 5	;RP0=1, select bank1
  3157  0483  1683               	bcf	status, 6	;RP1=0, select bank1
  3158  0484  1303               	movwf	(157)^080h	;volatile
  3159  0485  009D               	line	82
  3160                           	
  3161                           l1372:	
  3162  0486                     ;mcc_generated_files/ivout2.c: 82:     uint8_t target = 0x3C;
  3163                           	movlw	low(03Ch)
  3164  0486  303C               	movwf	(??_IVOUT2_Initialize+0)+0
  3165  0487  00FC               	movf	(??_IVOUT2_Initialize+0)+0,w
  3166  0488  087C               	movwf	(IVOUT2_Initialize@target)
  3167  0489  00FD               	line	84
  3168                           	
  3169                           l1374:	
  3170  048A                     ;mcc_generated_files/ivout2.c: 84:     IVOUT2_SetOutput(target);
  3171                           	movf	(IVOUT2_Initialize@target),w
  3172  048A  087D               	fcall	_IVOUT2_SetOutput
  3173  048B  120A  118A  26C7  120A  118A  	line	85
  3174                           	
  3175                           l187:	
  3176  0490                     	return
  3177  0490  0008               	opt stack 0
  3178                           GLOBAL	__end_of_IVOUT2_Initialize
  3179                           	__end_of_IVOUT2_Initialize:
  3180  0491                     	signat	_IVOUT2_Initialize,89
  3181                           	global	_IVOUT2_SetOutput
  3182                           
  3183 ;; *************** function _IVOUT2_SetOutput *****************
  3184 ;; Defined at:
  3185 ;;		line 87 in file "mcc_generated_files/ivout2.c"
  3186 ;; Parameters:    Size  Location     Type
  3187 ;;  outputTarget    1    wreg     unsigned char 
  3188 ;; Auto vars:     Size  Location     Type
  3189 ;;  outputTarget    1    6[BANK0 ] unsigned char 
  3190 ;;  firstStep       1    3[BANK0 ] unsigned char 
  3191 ;;  firstStep       1    2[BANK0 ] unsigned char 
  3192 ;;  firstStep       1    1[BANK0 ] unsigned char 
  3193 ;;  firstStep       1    0[BANK0 ] unsigned char 
  3194 ;;  outputStep      1    5[BANK0 ] unsigned char 
  3195 ;;  pwmStep         1    4[BANK0 ] unsigned char 
  3196 ;; Return value:  Size  Location     Type
  3197 ;;                  1    wreg      void 
  3198 ;; Registers used:
  3199 ;;		wreg, status,2, status,0, pclath, cstack
  3200 ;; Tracked objects:
  3201 ;;		On entry : 0/0
  3202 ;;		On exit  : 0/0
  3203 ;;		Unchanged: 0/0
  3204 ;; Data sizes:     COMMON   BANK0   BANK1   BANK2
  3205 ;;      Params:         0       0       0       0
  3206 ;;      Locals:         0       7       0       0
  3207 ;;      Temps:          5       0       0       0
  3208 ;;      Totals:         5       7       0       0
  3209 ;;Total ram usage:       12 bytes
  3210 ;; Hardware stack levels used:    1
  3211 ;; Hardware stack levels required when called:    1
  3212 ;; This function calls:
  3213 ;;		___awmod
  3214 ;; This function is called by:
  3215 ;;		_IVOUT2_Initialize
  3216 ;; This function uses a non-reentrant model
  3217 ;;
  3218                           psect	text8,local,class=CODE,delta=2,merge=1,group=0
  3219                           	line	87
  3220                           global __ptext8
  3221                           __ptext8:	;psect for function _IVOUT2_SetOutput
  3222  06C7                     psect	text8
  3223                           	file	"mcc_generated_files/ivout2.c"
  3224                           	line	87
  3225                           	global	__size_of_IVOUT2_SetOutput
  3226                           	__size_of_IVOUT2_SetOutput	equ	__end_of_IVOUT2_SetOutput-_IVOUT2_SetOutput
  3227  012D                     	
  3228                           _IVOUT2_SetOutput:	
  3229  06C7                     ;incstack = 0
  3230                           	opt	stack 4
  3231                           ; Regs used in _IVOUT2_SetOutput: [wreg+status,2+status,0+pclath+cstack]
  3232                           ;IVOUT2_SetOutput@outputTarget stored from wreg
  3233                           	bcf	status, 5	;RP0=0, select bank0
  3234  06C7  1283               	bcf	status, 6	;RP1=0, select bank0
  3235  06C8  1303               	movwf	(IVOUT2_SetOutput@outputTarget)
  3236  06C9  00A6               	line	90
  3237                           	
  3238                           l1286:	
  3239  06CA                     ;mcc_generated_files/ivout2.c: 87: void IVOUT2_SetOutput(uint8_t outputTarget);mcc_gener
                                 ated_files/ivout2.c: 88: {;mcc_generated_files/ivout2.c: 90:  VREFCON2 = 0x0;
  3240                           	bsf	status, 5	;RP0=1, select bank1
  3241  06CA  1683               	bcf	status, 6	;RP1=0, select bank1
  3242  06CB  1303               	clrf	(146)^080h	;volatile
  3243  06CC  0192               	line	95
  3244                           	
  3245                           l1288:	
  3246  06CD                     ;mcc_generated_files/ivout2.c: 95:     ABECON2bits.EA1DIS2 = 0;
  3247                           	bcf	status, 5	;RP0=0, select bank2
  3248  06CD  1283               	bsf	status, 6	;RP1=1, select bank2
  3249  06CE  1703               	bcf	(269)^0100h,2	;volatile
  3250  06CF  110D               	line	97
  3251                           	
  3252                           l1290:	
  3253  06D0                     ;mcc_generated_files/ivout2.c: 97:     ABECON2bits.EA2DIS2 = 0;
  3254                           	bcf	(269)^0100h,1	;volatile
  3255  06D0  108D               	line	99
  3256                           	
  3257                           l1292:	
  3258  06D1                     ;mcc_generated_files/ivout2.c: 99:     PE1bits.PDRV2EN = 1;
  3259                           	bsf	(263)^0100h,6	;volatile
  3260  06D1  1707               	line	101
  3261                           	
  3262                           l1294:	
  3263  06D2                     ;mcc_generated_files/ivout2.c: 101:  uint8_t pwmStep = 1;
  3264                           	bcf	status, 5	;RP0=0, select bank0
  3265  06D2  1283               	bcf	status, 6	;RP1=0, select bank0
  3266  06D3  1303               	clrf	(IVOUT2_SetOutput@pwmStep)
  3267  06D4  01A4               	incf	(IVOUT2_SetOutput@pwmStep),f
  3268  06D5  0AA4               	line	102
  3269                           	
  3270                           l1296:	
  3271  06D6                     ;mcc_generated_files/ivout2.c: 102:     if (PWM2RL < 0x12)
  3272                           	movlw	low(012h)
  3273  06D6  3012               	subwf	(21),w	;volatile
  3274  06D7  0215               	skipnc
  3275  06D8  1803               	goto	u461
  3276  06D9  2EDB               	goto	u460
  3277  06DA  2EDC               u461:
  3278  06DB                     	goto	l1308
  3279  06DB  2F1A               u460:
  3280  06DC                     	line	105
  3281                           	
  3282                           l1298:	
  3283  06DC                     ;mcc_generated_files/ivout2.c: 103:     {;mcc_generated_files/ivout2.c: 105:         uin
                                 t8_t firstStep = (uint8_t)((0x12 - PWM2RL) % pwmStep);
  3284                           	movf	(IVOUT2_SetOutput@pwmStep),w
  3285  06DC  0824               	movwf	(??_IVOUT2_SetOutput+0)+0
  3286  06DD  00F7               	clrf	(??_IVOUT2_SetOutput+0)+0+1
  3287  06DE  01F8               	movf	0+(??_IVOUT2_SetOutput+0)+0,w
  3288  06DF  0877               	movwf	(___awmod@divisor)
  3289  06E0  00F0               	movf	1+(??_IVOUT2_SetOutput+0)+0,w
  3290  06E1  0878               	movwf	(___awmod@divisor+1)
  3291  06E2  00F1               	movf	(21),w	;volatile
  3292  06E3  0815               	movwf	(??_IVOUT2_SetOutput+2)+0
  3293  06E4  00F9               	clrf	(??_IVOUT2_SetOutput+2)+0+1
  3294  06E5  01FA               	comf	(??_IVOUT2_SetOutput+2)+0,f
  3295  06E6  09F9               	comf	(??_IVOUT2_SetOutput+2)+1,f
  3296  06E7  09FA               	incf	(??_IVOUT2_SetOutput+2)+0,f
  3297  06E8  0AF9               	skipnz
  3298  06E9  1903               	incf	(??_IVOUT2_SetOutput+2)+1,f
  3299  06EA  0AFA               	movf	0+(??_IVOUT2_SetOutput+2)+0,w
  3300  06EB  0879               	addlw	low(012h)
  3301  06EC  3E12               	movwf	(___awmod@dividend)
  3302  06ED  00F2               	movf	1+(??_IVOUT2_SetOutput+2)+0,w
  3303  06EE  087A               	skipnc
  3304  06EF  1803               	addlw	1
  3305  06F0  3E01               	addlw	high(012h)
  3306  06F1  3E00               	movwf	1+(___awmod@dividend)
  3307  06F2  00F3               	fcall	___awmod
  3308  06F3  120A  118A  2491  120A  118A  	movf	(0+(?___awmod)),w
  3309  06F8  0870               	movwf	(??_IVOUT2_SetOutput+4)+0
  3310  06F9  00FB               	movf	(??_IVOUT2_SetOutput+4)+0,w
  3311  06FA  087B               	bcf	status, 5	;RP0=0, select bank0
  3312  06FB  1283               	bcf	status, 6	;RP1=0, select bank0
  3313  06FC  1303               	movwf	(IVOUT2_SetOutput@firstStep)
  3314  06FD  00A0               	line	106
  3315                           	
  3316                           l1300:	
  3317  06FE                     ;mcc_generated_files/ivout2.c: 106:         PWM2RL += firstStep;
  3318                           	movf	(IVOUT2_SetOutput@firstStep),w	;volatile
  3319  06FE  0820               	movwf	(??_IVOUT2_SetOutput+0)+0
  3320  06FF  00F7               	movf	(??_IVOUT2_SetOutput+0)+0,w
  3321  0700  0877               	addwf	(21),f	;volatile
  3322  0701  0795               	line	107
  3323                           ;mcc_generated_files/ivout2.c: 107:         while (PWM2RL != 0x12) {
  3324                           	goto	l1306
  3325  0702  2F10               	
  3326                           l192:	
  3327  0703                     	line	108
  3328                           	
  3329                           l1302:	
  3330  0703                     ;mcc_generated_files/ivout2.c: 108:             PWM2RL += pwmStep;
  3331                           	movf	(IVOUT2_SetOutput@pwmStep),w	;volatile
  3332  0703  0824               	movwf	(??_IVOUT2_SetOutput+0)+0
  3333  0704  00F7               	movf	(??_IVOUT2_SetOutput+0)+0,w
  3334  0705  0877               	addwf	(21),f	;volatile
  3335  0706  0795               	line	109
  3336                           	
  3337                           l1304:	
  3338  0707                     ;mcc_generated_files/ivout2.c: 109:             _delay((unsigned long)((2774)*(8000000/4
                                 000000.0)));
  3339                           	opt asmopt_push
  3340                           opt asmopt_off
  3341                           movlw	8
  3342  0707  3008               movwf	((??_IVOUT2_SetOutput+0)+0+1),f
  3343  0708  00F8               	movlw	51
  3344  0709  3033               movwf	((??_IVOUT2_SetOutput+0)+0),f
  3345  070A  00F7               	u557:
  3346  070B                     decfsz	((??_IVOUT2_SetOutput+0)+0),f
  3347  070B  0BF7               	goto	u557
  3348  070C  2F0B               	decfsz	((??_IVOUT2_SetOutput+0)+0+1),f
  3349  070D  0BF8               	goto	u557
  3350  070E  2F0B               opt asmopt_pop
  3351                           
  3352                           	goto	l1306
  3353  070F  2F10               	line	110
  3354                           ;mcc_generated_files/ivout2.c: 110:         }
  3355                           	
  3356                           l191:	
  3357  0710                     	line	107
  3358                           	
  3359                           l1306:	
  3360  0710                     ;mcc_generated_files/ivout2.c: 107:         while (PWM2RL != 0x12) {
  3361                           		movlw	18
  3362  0710  3012               	bcf	status, 5	;RP0=0, select bank0
  3363  0711  1283               	bcf	status, 6	;RP1=0, select bank0
  3364  0712  1303               	xorwf	((21)),w	;volatile
  3365  0713  0615               	btfss	status,2
  3366  0714  1D03               	goto	u471
  3367  0715  2F17               	goto	u470
  3368  0716  2F18               u471:
  3369  0717                     	goto	l1302
  3370  0717  2F03               u470:
  3371  0718                     	goto	l1308
  3372  0718  2F1A               	
  3373                           l193:	
  3374  0719                     	goto	l1308
  3375  0719  2F1A               	line	111
  3376                           ;mcc_generated_files/ivout2.c: 111:     }
  3377                           	
  3378                           l190:	
  3379  071A                     	line	112
  3380                           	
  3381                           l1308:	
  3382  071A                     ;mcc_generated_files/ivout2.c: 112:     if (PWM2RL > 0x12)
  3383                           	movlw	low(013h)
  3384  071A  3013               	subwf	(21),w	;volatile
  3385  071B  0215               	skipc
  3386  071C  1C03               	goto	u481
  3387  071D  2F1F               	goto	u480
  3388  071E  2F20               u481:
  3389  071F                     	goto	l1320
  3390  071F  2F51               u480:
  3391  0720                     	line	115
  3392                           	
  3393                           l1310:	
  3394  0720                     ;mcc_generated_files/ivout2.c: 113:     {;mcc_generated_files/ivout2.c: 115:         uin
                                 t8_t firstStep = (uint8_t)((PWM2RL - 0x12) % pwmStep);
  3395                           	movf	(IVOUT2_SetOutput@pwmStep),w
  3396  0720  0824               	movwf	(??_IVOUT2_SetOutput+0)+0
  3397  0721  00F7               	clrf	(??_IVOUT2_SetOutput+0)+0+1
  3398  0722  01F8               	movf	0+(??_IVOUT2_SetOutput+0)+0,w
  3399  0723  0877               	movwf	(___awmod@divisor)
  3400  0724  00F0               	movf	1+(??_IVOUT2_SetOutput+0)+0,w
  3401  0725  0878               	movwf	(___awmod@divisor+1)
  3402  0726  00F1               	movf	(21),w	;volatile
  3403  0727  0815               	addlw	low(-18)
  3404  0728  3EEE               	movwf	(___awmod@dividend)
  3405  0729  00F2               	movlw	high(-18)
  3406  072A  30FF               	skipnc
  3407  072B  1803               	movlw	(high(-18)+1)&0ffh
  3408  072C  3000               	movwf	((___awmod@dividend))+1
  3409  072D  00F3               	fcall	___awmod
  3410  072E  120A  118A  2491  120A  118A  	movf	(0+(?___awmod)),w
  3411  0733  0870               	movwf	(??_IVOUT2_SetOutput+2)+0
  3412  0734  00F9               	movf	(??_IVOUT2_SetOutput+2)+0,w
  3413  0735  0879               	bcf	status, 5	;RP0=0, select bank0
  3414  0736  1283               	bcf	status, 6	;RP1=0, select bank0
  3415  0737  1303               	movwf	(IVOUT2_SetOutput@firstStep_332)
  3416  0738  00A1               	line	116
  3417                           	
  3418                           l1312:	
  3419  0739                     ;mcc_generated_files/ivout2.c: 116:         PWM2RL -= firstStep;
  3420                           	movf	(IVOUT2_SetOutput@firstStep_332),w	;volatile
  3421  0739  0821               	subwf	(21),f	;volatile
  3422  073A  0295               	line	117
  3423                           ;mcc_generated_files/ivout2.c: 117:         while (PWM2RL != 0x12) {
  3424                           	goto	l1318
  3425  073B  2F47               	
  3426                           l196:	
  3427  073C                     	line	118
  3428                           	
  3429                           l1314:	
  3430  073C                     ;mcc_generated_files/ivout2.c: 118:             PWM2RL -= pwmStep;
  3431                           	movf	(IVOUT2_SetOutput@pwmStep),w	;volatile
  3432  073C  0824               	subwf	(21),f	;volatile
  3433  073D  0295               	line	119
  3434                           	
  3435                           l1316:	
  3436  073E                     ;mcc_generated_files/ivout2.c: 119:             _delay((unsigned long)((2774)*(8000000/4
                                 000000.0)));
  3437                           	opt asmopt_push
  3438                           opt asmopt_off
  3439                           movlw	8
  3440  073E  3008               movwf	((??_IVOUT2_SetOutput+0)+0+1),f
  3441  073F  00F8               	movlw	51
  3442  0740  3033               movwf	((??_IVOUT2_SetOutput+0)+0),f
  3443  0741  00F7               	u567:
  3444  0742                     decfsz	((??_IVOUT2_SetOutput+0)+0),f
  3445  0742  0BF7               	goto	u567
  3446  0743  2F42               	decfsz	((??_IVOUT2_SetOutput+0)+0+1),f
  3447  0744  0BF8               	goto	u567
  3448  0745  2F42               opt asmopt_pop
  3449                           
  3450                           	goto	l1318
  3451  0746  2F47               	line	120
  3452                           ;mcc_generated_files/ivout2.c: 120:         }
  3453                           	
  3454                           l195:	
  3455  0747                     	line	117
  3456                           	
  3457                           l1318:	
  3458  0747                     ;mcc_generated_files/ivout2.c: 117:         while (PWM2RL != 0x12) {
  3459                           		movlw	18
  3460  0747  3012               	bcf	status, 5	;RP0=0, select bank0
  3461  0748  1283               	bcf	status, 6	;RP1=0, select bank0
  3462  0749  1303               	xorwf	((21)),w	;volatile
  3463  074A  0615               	btfss	status,2
  3464  074B  1D03               	goto	u491
  3465  074C  2F4E               	goto	u490
  3466  074D  2F4F               u491:
  3467  074E                     	goto	l1314
  3468  074E  2F3C               u490:
  3469  074F                     	goto	l1320
  3470  074F  2F51               	
  3471                           l197:	
  3472  0750                     	goto	l1320
  3473  0750  2F51               	line	121
  3474                           ;mcc_generated_files/ivout2.c: 121:     }
  3475                           	
  3476                           l194:	
  3477  0751                     	line	124
  3478                           	
  3479                           l1320:	
  3480  0751                     ;mcc_generated_files/ivout2.c: 124:  CREFCON2 = 0x7D;
  3481                           	movlw	low(07Dh)
  3482  0751  307D               	bsf	status, 5	;RP0=1, select bank1
  3483  0752  1683               	bcf	status, 6	;RP1=0, select bank1
  3484  0753  1303               	movwf	(144)^080h	;volatile
  3485  0754  0090               	line	125
  3486                           	
  3487                           l1322:	
  3488  0755                     ;mcc_generated_files/ivout2.c: 125:     uint8_t outputStep = 1;
  3489                           	bcf	status, 5	;RP0=0, select bank0
  3490  0755  1283               	bcf	status, 6	;RP1=0, select bank0
  3491  0756  1303               	clrf	(IVOUT2_SetOutput@outputStep)
  3492  0757  01A5               	incf	(IVOUT2_SetOutput@outputStep),f
  3493  0758  0AA5               	line	126
  3494                           ;mcc_generated_files/ivout2.c: 126:     if (VREFCON2 < outputTarget)
  3495                           	movf	(IVOUT2_SetOutput@outputTarget),w
  3496  0759  0826               	bsf	status, 5	;RP0=1, select bank1
  3497  075A  1683               	bcf	status, 6	;RP1=0, select bank1
  3498  075B  1303               	subwf	(146)^080h,w	;volatile
  3499  075C  0212               	skipnc
  3500  075D  1803               	goto	u501
  3501  075E  2F60               	goto	u500
  3502  075F  2F61               u501:
  3503  0760                     	goto	l1334
  3504  0760  2FA9               u500:
  3505  0761                     	line	129
  3506                           	
  3507                           l1324:	
  3508  0761                     ;mcc_generated_files/ivout2.c: 127:     {;mcc_generated_files/ivout2.c: 129:         uin
                                 t8_t firstStep = (uint8_t)((outputTarget - VREFCON2) % outputStep);
  3509                           	bcf	status, 5	;RP0=0, select bank0
  3510  0761  1283               	bcf	status, 6	;RP1=0, select bank0
  3511  0762  1303               	movf	(IVOUT2_SetOutput@outputStep),w
  3512  0763  0825               	movwf	(??_IVOUT2_SetOutput+0)+0
  3513  0764  00F7               	clrf	(??_IVOUT2_SetOutput+0)+0+1
  3514  0765  01F8               	movf	0+(??_IVOUT2_SetOutput+0)+0,w
  3515  0766  0877               	movwf	(___awmod@divisor)
  3516  0767  00F0               	movf	1+(??_IVOUT2_SetOutput+0)+0,w
  3517  0768  0878               	movwf	(___awmod@divisor+1)
  3518  0769  00F1               	bsf	status, 5	;RP0=1, select bank1
  3519  076A  1683               	bcf	status, 6	;RP1=0, select bank1
  3520  076B  1303               	movf	(146)^080h,w	;volatile
  3521  076C  0812               	movwf	(??_IVOUT2_SetOutput+2)+0
  3522  076D  00F9               	clrf	(??_IVOUT2_SetOutput+2)+0+1
  3523  076E  01FA               	comf	(??_IVOUT2_SetOutput+2)+0,f
  3524  076F  09F9               	comf	(??_IVOUT2_SetOutput+2)+1,f
  3525  0770  09FA               	incf	(??_IVOUT2_SetOutput+2)+0,f
  3526  0771  0AF9               	skipnz
  3527  0772  1903               	incf	(??_IVOUT2_SetOutput+2)+1,f
  3528  0773  0AFA               	bcf	status, 5	;RP0=0, select bank0
  3529  0774  1283               	bcf	status, 6	;RP1=0, select bank0
  3530  0775  1303               	movf	(IVOUT2_SetOutput@outputTarget),w
  3531  0776  0826               	addwf	0+(??_IVOUT2_SetOutput+2)+0,w
  3532  0777  0779               	movwf	(___awmod@dividend)
  3533  0778  00F2               	movf	1+(??_IVOUT2_SetOutput+2)+0,w
  3534  0779  087A               	skipnc
  3535  077A  1803               	incf	1+(??_IVOUT2_SetOutput+2)+0,w
  3536  077B  0A7A               	movwf	((___awmod@dividend))+1
  3537  077C  00F3               	fcall	___awmod
  3538  077D  120A  118A  2491  120A  118A  	movf	(0+(?___awmod)),w
  3539  0782  0870               	movwf	(??_IVOUT2_SetOutput+4)+0
  3540  0783  00FB               	movf	(??_IVOUT2_SetOutput+4)+0,w
  3541  0784  087B               	bcf	status, 5	;RP0=0, select bank0
  3542  0785  1283               	bcf	status, 6	;RP1=0, select bank0
  3543  0786  1303               	movwf	(IVOUT2_SetOutput@firstStep_334)
  3544  0787  00A2               	line	130
  3545                           	
  3546                           l1326:	
  3547  0788                     ;mcc_generated_files/ivout2.c: 130:         VREFCON2 += firstStep;
  3548                           	movf	(IVOUT2_SetOutput@firstStep_334),w	;volatile
  3549  0788  0822               	movwf	(??_IVOUT2_SetOutput+0)+0
  3550  0789  00F7               	movf	(??_IVOUT2_SetOutput+0)+0,w
  3551  078A  0877               	bsf	status, 5	;RP0=1, select bank1
  3552  078B  1683               	bcf	status, 6	;RP1=0, select bank1
  3553  078C  1303               	addwf	(146)^080h,f	;volatile
  3554  078D  0792               	line	131
  3555                           ;mcc_generated_files/ivout2.c: 131:         while (VREFCON2 != outputTarget) {
  3556                           	goto	l1332
  3557  078E  2F9D               	
  3558                           l200:	
  3559  078F                     	line	132
  3560                           	
  3561                           l1328:	
  3562  078F                     ;mcc_generated_files/ivout2.c: 132:             VREFCON2 += outputStep;
  3563                           	bcf	status, 5	;RP0=0, select bank0
  3564  078F  1283               	movf	(IVOUT2_SetOutput@outputStep),w	;volatile
  3565  0790  0825               	movwf	(??_IVOUT2_SetOutput+0)+0
  3566  0791  00F7               	movf	(??_IVOUT2_SetOutput+0)+0,w
  3567  0792  0877               	bsf	status, 5	;RP0=1, select bank1
  3568  0793  1683               	bcf	status, 6	;RP1=0, select bank1
  3569  0794  1303               	addwf	(146)^080h,f	;volatile
  3570  0795  0792               	line	133
  3571                           	
  3572                           l1330:	
  3573  0796                     ;mcc_generated_files/ivout2.c: 133:             _delay((unsigned long)((830)*(8000000/40
                                 00000.0)));
  3574                           	opt asmopt_push
  3575                           opt asmopt_off
  3576                           	movlw	237
  3577  0796  30ED               movwf	((??_IVOUT2_SetOutput+0)+0),f
  3578  0797  00F7               	u577:
  3579  0798                     	nop2
  3580  0798  2F99               	nop2
  3581  0799  2F9A               decfsz	(??_IVOUT2_SetOutput+0)+0,f
  3582  079A  0BF7               	goto	u577
  3583  079B  2F98               opt asmopt_pop
  3584                           
  3585                           	goto	l1332
  3586  079C  2F9D               	line	134
  3587                           ;mcc_generated_files/ivout2.c: 134:         }
  3588                           	
  3589                           l199:	
  3590  079D                     	line	131
  3591                           	
  3592                           l1332:	
  3593  079D                     ;mcc_generated_files/ivout2.c: 131:         while (VREFCON2 != outputTarget) {
  3594                           	bsf	status, 5	;RP0=1, select bank1
  3595  079D  1683               	bcf	status, 6	;RP1=0, select bank1
  3596  079E  1303               	movf	(146)^080h,w	;volatile
  3597  079F  0812               	bcf	status, 5	;RP0=0, select bank0
  3598  07A0  1283               	bcf	status, 6	;RP1=0, select bank0
  3599  07A1  1303               	xorwf	(IVOUT2_SetOutput@outputTarget),w
  3600  07A2  0626               	skipz
  3601  07A3  1D03               	goto	u511
  3602  07A4  2FA6               	goto	u510
  3603  07A5  2FA7               u511:
  3604  07A6                     	goto	l1328
  3605  07A6  2F8F               u510:
  3606  07A7                     	goto	l1334
  3607  07A7  2FA9               	
  3608                           l201:	
  3609  07A8                     	goto	l1334
  3610  07A8  2FA9               	line	135
  3611                           ;mcc_generated_files/ivout2.c: 135:     }
  3612                           	
  3613                           l198:	
  3614  07A9                     	line	136
  3615                           	
  3616                           l1334:	
  3617  07A9                     ;mcc_generated_files/ivout2.c: 136:     if (VREFCON2 > outputTarget)
  3618                           	bsf	status, 5	;RP0=1, select bank1
  3619  07A9  1683               	bcf	status, 6	;RP1=0, select bank1
  3620  07AA  1303               	movf	(146)^080h,w	;volatile
  3621  07AB  0812               	bcf	status, 5	;RP0=0, select bank0
  3622  07AC  1283               	bcf	status, 6	;RP1=0, select bank0
  3623  07AD  1303               	subwf	(IVOUT2_SetOutput@outputTarget),w
  3624  07AE  0226               	skipnc
  3625  07AF  1803               	goto	u521
  3626  07B0  2FB2               	goto	u520
  3627  07B1  2FB3               u521:
  3628  07B2                     	goto	l206
  3629  07B2  2FF3               u520:
  3630  07B3                     	line	139
  3631                           	
  3632                           l1336:	
  3633  07B3                     ;mcc_generated_files/ivout2.c: 137:     {;mcc_generated_files/ivout2.c: 139:         uin
                                 t8_t firstStep = (uint8_t)((VREFCON2 - outputTarget) % outputStep);
  3634                           	movf	(IVOUT2_SetOutput@outputStep),w
  3635  07B3  0825               	movwf	(??_IVOUT2_SetOutput+0)+0
  3636  07B4  00F7               	clrf	(??_IVOUT2_SetOutput+0)+0+1
  3637  07B5  01F8               	movf	0+(??_IVOUT2_SetOutput+0)+0,w
  3638  07B6  0877               	movwf	(___awmod@divisor)
  3639  07B7  00F0               	movf	1+(??_IVOUT2_SetOutput+0)+0,w
  3640  07B8  0878               	movwf	(___awmod@divisor+1)
  3641  07B9  00F1               	movf	(IVOUT2_SetOutput@outputTarget),w
  3642  07BA  0826               	movwf	(??_IVOUT2_SetOutput+2)+0
  3643  07BB  00F9               	clrf	(??_IVOUT2_SetOutput+2)+0+1
  3644  07BC  01FA               	comf	(??_IVOUT2_SetOutput+2)+0,f
  3645  07BD  09F9               	comf	(??_IVOUT2_SetOutput+2)+1,f
  3646  07BE  09FA               	incf	(??_IVOUT2_SetOutput+2)+0,f
  3647  07BF  0AF9               	skipnz
  3648  07C0  1903               	incf	(??_IVOUT2_SetOutput+2)+1,f
  3649  07C1  0AFA               	bsf	status, 5	;RP0=1, select bank1
  3650  07C2  1683               	bcf	status, 6	;RP1=0, select bank1
  3651  07C3  1303               	movf	(146)^080h,w	;volatile
  3652  07C4  0812               	addwf	0+(??_IVOUT2_SetOutput+2)+0,w
  3653  07C5  0779               	movwf	(___awmod@dividend)
  3654  07C6  00F2               	movf	1+(??_IVOUT2_SetOutput+2)+0,w
  3655  07C7  087A               	skipnc
  3656  07C8  1803               	incf	1+(??_IVOUT2_SetOutput+2)+0,w
  3657  07C9  0A7A               	movwf	((___awmod@dividend))+1
  3658  07CA  00F3               	fcall	___awmod
  3659  07CB  120A  118A  2491  120A  118A  	movf	(0+(?___awmod)),w
  3660  07D0  0870               	movwf	(??_IVOUT2_SetOutput+4)+0
  3661  07D1  00FB               	movf	(??_IVOUT2_SetOutput+4)+0,w
  3662  07D2  087B               	bcf	status, 5	;RP0=0, select bank0
  3663  07D3  1283               	bcf	status, 6	;RP1=0, select bank0
  3664  07D4  1303               	movwf	(IVOUT2_SetOutput@firstStep_335)
  3665  07D5  00A3               	line	140
  3666                           	
  3667                           l1338:	
  3668  07D6                     ;mcc_generated_files/ivout2.c: 140:         VREFCON2 -= firstStep;
  3669                           	movf	(IVOUT2_SetOutput@firstStep_335),w	;volatile
  3670  07D6  0823               	bsf	status, 5	;RP0=1, select bank1
  3671  07D7  1683               	bcf	status, 6	;RP1=0, select bank1
  3672  07D8  1303               	subwf	(146)^080h,f	;volatile
  3673  07D9  0292               	line	141
  3674                           ;mcc_generated_files/ivout2.c: 141:         while (VREFCON2 != outputTarget) {
  3675                           	goto	l1344
  3676  07DA  2FE7               	
  3677                           l204:	
  3678  07DB                     	line	142
  3679                           	
  3680                           l1340:	
  3681  07DB                     ;mcc_generated_files/ivout2.c: 142:             VREFCON2 -= outputStep;
  3682                           	bcf	status, 5	;RP0=0, select bank0
  3683  07DB  1283               	movf	(IVOUT2_SetOutput@outputStep),w	;volatile
  3684  07DC  0825               	bsf	status, 5	;RP0=1, select bank1
  3685  07DD  1683               	bcf	status, 6	;RP1=0, select bank1
  3686  07DE  1303               	subwf	(146)^080h,f	;volatile
  3687  07DF  0292               	line	143
  3688                           	
  3689                           l1342:	
  3690  07E0                     ;mcc_generated_files/ivout2.c: 143:             _delay((unsigned long)((830)*(8000000/40
                                 00000.0)));
  3691                           	opt asmopt_push
  3692                           opt asmopt_off
  3693                           	movlw	237
  3694  07E0  30ED               movwf	((??_IVOUT2_SetOutput+0)+0),f
  3695  07E1  00F7               	u587:
  3696  07E2                     	nop2
  3697  07E2  2FE3               	nop2
  3698  07E3  2FE4               decfsz	(??_IVOUT2_SetOutput+0)+0,f
  3699  07E4  0BF7               	goto	u587
  3700  07E5  2FE2               opt asmopt_pop
  3701                           
  3702                           	goto	l1344
  3703  07E6  2FE7               	line	144
  3704                           ;mcc_generated_files/ivout2.c: 144:         }
  3705                           	
  3706                           l203:	
  3707  07E7                     	line	141
  3708                           	
  3709                           l1344:	
  3710  07E7                     ;mcc_generated_files/ivout2.c: 141:         while (VREFCON2 != outputTarget) {
  3711                           	bsf	status, 5	;RP0=1, select bank1
  3712  07E7  1683               	bcf	status, 6	;RP1=0, select bank1
  3713  07E8  1303               	movf	(146)^080h,w	;volatile
  3714  07E9  0812               	bcf	status, 5	;RP0=0, select bank0
  3715  07EA  1283               	bcf	status, 6	;RP1=0, select bank0
  3716  07EB  1303               	xorwf	(IVOUT2_SetOutput@outputTarget),w
  3717  07EC  0626               	skipz
  3718  07ED  1D03               	goto	u531
  3719  07EE  2FF0               	goto	u530
  3720  07EF  2FF1               u531:
  3721  07F0                     	goto	l1340
  3722  07F0  2FDB               u530:
  3723  07F1                     	goto	l206
  3724  07F1  2FF3               	
  3725                           l205:	
  3726  07F2                     	goto	l206
  3727  07F2  2FF3               	line	145
  3728                           ;mcc_generated_files/ivout2.c: 145:     }
  3729                           	
  3730                           l202:	
  3731  07F3                     	line	146
  3732                           	
  3733                           l206:	
  3734  07F3                     	return
  3735  07F3  0008               	opt stack 0
  3736                           GLOBAL	__end_of_IVOUT2_SetOutput
  3737                           	__end_of_IVOUT2_SetOutput:
  3738  07F4                     	signat	_IVOUT2_SetOutput,4217
  3739                           	global	_IVOUT1_Initialize
  3740                           
  3741 ;; *************** function _IVOUT1_Initialize *****************
  3742 ;; Defined at:
  3743 ;;		line 58 in file "mcc_generated_files/ivout1.c"
  3744 ;; Parameters:    Size  Location     Type
  3745 ;;		None
  3746 ;; Auto vars:     Size  Location     Type
  3747 ;;  target          1   13[COMMON] unsigned char 
  3748 ;; Return value:  Size  Location     Type
  3749 ;;                  1    wreg      void 
  3750 ;; Registers used:
  3751 ;;		wreg, status,2, status,0, pclath, cstack
  3752 ;; Tracked objects:
  3753 ;;		On entry : 0/0
  3754 ;;		On exit  : 0/0
  3755 ;;		Unchanged: 0/0
  3756 ;; Data sizes:     COMMON   BANK0   BANK1   BANK2
  3757 ;;      Params:         0       0       0       0
  3758 ;;      Locals:         1       0       0       0
  3759 ;;      Temps:          1       0       0       0
  3760 ;;      Totals:         2       0       0       0
  3761 ;;Total ram usage:        2 bytes
  3762 ;; Hardware stack levels used:    1
  3763 ;; Hardware stack levels required when called:    2
  3764 ;; This function calls:
  3765 ;;		_IVOUT1_SetOutput
  3766 ;; This function is called by:
  3767 ;;		_SYSTEM_Initialize
  3768 ;; This function uses a non-reentrant model
  3769 ;;
  3770                           psect	text9,local,class=CODE,delta=2,merge=1,group=0
  3771                           	file	"mcc_generated_files/ivout1.c"
  3772                           	line	58
  3773                           global __ptext9
  3774                           __ptext9:	;psect for function _IVOUT1_Initialize
  3775  0444                     psect	text9
  3776                           	file	"mcc_generated_files/ivout1.c"
  3777                           	line	58
  3778                           	global	__size_of_IVOUT1_Initialize
  3779                           	__size_of_IVOUT1_Initialize	equ	__end_of_IVOUT1_Initialize-_IVOUT1_Initialize
  3780  0026                     	
  3781                           _IVOUT1_Initialize:	
  3782  0444                     ;incstack = 0
  3783                           	opt	stack 4
  3784                           ; Regs used in _IVOUT1_Initialize: [wreg+status,2+status,0+pclath+cstack]
  3785                           	line	61
  3786                           	
  3787                           l1376:	
  3788  0444                     ;mcc_generated_files/ivout1.c: 61:     ICOACONbits.IC1OAC = 0x04;
  3789                           	bsf	status, 5	;RP0=1, select bank1
  3790  0444  1683               	bcf	status, 6	;RP1=0, select bank1
  3791  0445  1303               	movf	(158)^080h,w	;volatile
  3792  0446  081E               	andlw	not (((1<<4)-1)<<4)
  3793  0447  390F               	iorlw	(04h & ((1<<4)-1))<<4
  3794  0448  3840               	movwf	(158)^080h	;volatile
  3795  0449  009E               	line	63
  3796                           ;mcc_generated_files/ivout1.c: 63:     ICLEBCONbits.IC1LEBC = 0x01;
  3797                           	movf	(159)^080h,w	;volatile
  3798  044A  081F               	andlw	not (((1<<2)-1)<<2)
  3799  044B  39F3               	iorlw	(01h & ((1<<2)-1))<<2
  3800  044C  3804               	movwf	(159)^080h	;volatile
  3801  044D  009F               	line	65
  3802                           	
  3803                           l1378:	
  3804  044E                     ;mcc_generated_files/ivout1.c: 65:     LOOPCON1 = 0x0;
  3805                           	clrf	(153)^080h	;volatile
  3806  044E  0199               	line	67
  3807                           	
  3808                           l1380:	
  3809  044F                     ;mcc_generated_files/ivout1.c: 67:     CREFCON1 = 0;
  3810                           	clrf	(143)^080h	;volatile
  3811  044F  018F               	line	69
  3812                           	
  3813                           l1382:	
  3814  0450                     ;mcc_generated_files/ivout1.c: 69:     PE1bits.PDRV1EN = 0x00;
  3815                           	bcf	status, 5	;RP0=0, select bank2
  3816  0450  1283               	bsf	status, 6	;RP1=1, select bank2
  3817  0451  1703               	bcf	(263)^0100h,7	;volatile
  3818  0452  1387               	line	71
  3819                           	
  3820                           l1384:	
  3821  0453                     ;mcc_generated_files/ivout1.c: 71:     ABECON1bits.EA1DIS1 = 0x01;
  3822                           	bsf	(268)^0100h,2	;volatile
  3823  0453  150C               	line	72
  3824                           	
  3825                           l1386:	
  3826  0454                     ;mcc_generated_files/ivout1.c: 72:     ABECON1bits.EA2DIS1 = 0x01;
  3827                           	bsf	(268)^0100h,1	;volatile
  3828  0454  148C               	line	74
  3829                           	
  3830                           l1388:	
  3831  0455                     ;mcc_generated_files/ivout1.c: 74:     VREFCON1 = 0;
  3832                           	bsf	status, 5	;RP0=1, select bank1
  3833  0455  1683               	bcf	status, 6	;RP1=0, select bank1
  3834  0456  1303               	clrf	(145)^080h	;volatile
  3835  0457  0191               	line	76
  3836                           	
  3837                           l1390:	
  3838  0458                     ;mcc_generated_files/ivout1.c: 76:     PWM1RL = 0;
  3839                           	bcf	status, 5	;RP0=0, select bank0
  3840  0458  1283               	bcf	status, 6	;RP1=0, select bank0
  3841  0459  1303               	clrf	(23)	;volatile
  3842  045A  0197               	line	78
  3843                           	
  3844                           l1392:	
  3845  045B                     ;mcc_generated_files/ivout1.c: 78:     SLPCRCON1 = 0xE;
  3846                           	movlw	low(0Eh)
  3847  045B  300E               	bsf	status, 5	;RP0=1, select bank1
  3848  045C  1683               	bcf	status, 6	;RP1=0, select bank1
  3849  045D  1303               	movwf	(156)^080h	;volatile
  3850  045E  009C               	line	80
  3851                           	
  3852                           l1394:	
  3853  045F                     ;mcc_generated_files/ivout1.c: 80:     uint8_t target = 0xC7;
  3854                           	movlw	low(0C7h)
  3855  045F  30C7               	movwf	(??_IVOUT1_Initialize+0)+0
  3856  0460  00FC               	movf	(??_IVOUT1_Initialize+0)+0,w
  3857  0461  087C               	movwf	(IVOUT1_Initialize@target)
  3858  0462  00FD               	line	82
  3859                           	
  3860                           l1396:	
  3861  0463                     ;mcc_generated_files/ivout1.c: 82:     IVOUT1_SetOutput(target);
  3862                           	movf	(IVOUT1_Initialize@target),w
  3863  0463  087D               	fcall	_IVOUT1_SetOutput
  3864  0464  120A  118A  259E  120A  118A  	line	83
  3865                           	
  3866                           l128:	
  3867  0469                     	return
  3868  0469  0008               	opt stack 0
  3869                           GLOBAL	__end_of_IVOUT1_Initialize
  3870                           	__end_of_IVOUT1_Initialize:
  3871  046A                     	signat	_IVOUT1_Initialize,89
  3872                           	global	_IVOUT1_SetOutput
  3873                           
  3874 ;; *************** function _IVOUT1_SetOutput *****************
  3875 ;; Defined at:
  3876 ;;		line 85 in file "mcc_generated_files/ivout1.c"
  3877 ;; Parameters:    Size  Location     Type
  3878 ;;  outputTarget    1    wreg     unsigned char 
  3879 ;; Auto vars:     Size  Location     Type
  3880 ;;  outputTarget    1    6[BANK0 ] unsigned char 
  3881 ;;  firstStep       1    3[BANK0 ] unsigned char 
  3882 ;;  firstStep       1    2[BANK0 ] unsigned char 
  3883 ;;  firstStep       1    1[BANK0 ] unsigned char 
  3884 ;;  firstStep       1    0[BANK0 ] unsigned char 
  3885 ;;  outputStep      1    5[BANK0 ] unsigned char 
  3886 ;;  pwmStep         1    4[BANK0 ] unsigned char 
  3887 ;; Return value:  Size  Location     Type
  3888 ;;                  1    wreg      void 
  3889 ;; Registers used:
  3890 ;;		wreg, status,2, status,0, pclath, cstack
  3891 ;; Tracked objects:
  3892 ;;		On entry : 0/0
  3893 ;;		On exit  : 0/0
  3894 ;;		Unchanged: 0/0
  3895 ;; Data sizes:     COMMON   BANK0   BANK1   BANK2
  3896 ;;      Params:         0       0       0       0
  3897 ;;      Locals:         0       7       0       0
  3898 ;;      Temps:          5       0       0       0
  3899 ;;      Totals:         5       7       0       0
  3900 ;;Total ram usage:       12 bytes
  3901 ;; Hardware stack levels used:    1
  3902 ;; Hardware stack levels required when called:    1
  3903 ;; This function calls:
  3904 ;;		___awmod
  3905 ;; This function is called by:
  3906 ;;		_IVOUT1_Initialize
  3907 ;; This function uses a non-reentrant model
  3908 ;;
  3909                           psect	text10,local,class=CODE,delta=2,merge=1,group=0
  3910                           	line	85
  3911                           global __ptext10
  3912                           __ptext10:	;psect for function _IVOUT1_SetOutput
  3913  059E                     psect	text10
  3914                           	file	"mcc_generated_files/ivout1.c"
  3915                           	line	85
  3916                           	global	__size_of_IVOUT1_SetOutput
  3917                           	__size_of_IVOUT1_SetOutput	equ	__end_of_IVOUT1_SetOutput-_IVOUT1_SetOutput
  3918  0129                     	
  3919                           _IVOUT1_SetOutput:	
  3920  059E                     ;incstack = 0
  3921                           	opt	stack 4
  3922                           ; Regs used in _IVOUT1_SetOutput: [wreg+status,2+status,0+pclath+cstack]
  3923                           ;IVOUT1_SetOutput@outputTarget stored from wreg
  3924                           	bcf	status, 5	;RP0=0, select bank0
  3925  059E  1283               	bcf	status, 6	;RP1=0, select bank0
  3926  059F  1303               	movwf	(IVOUT1_SetOutput@outputTarget)
  3927  05A0  00A6               	line	88
  3928                           	
  3929                           l1226:	
  3930  05A1                     ;mcc_generated_files/ivout1.c: 85: void IVOUT1_SetOutput(uint8_t outputTarget);mcc_gener
                                 ated_files/ivout1.c: 86: {;mcc_generated_files/ivout1.c: 88:  VREFCON1 = 0x0;
  3931                           	bsf	status, 5	;RP0=1, select bank1
  3932  05A1  1683               	bcf	status, 6	;RP1=0, select bank1
  3933  05A2  1303               	clrf	(145)^080h	;volatile
  3934  05A3  0191               	line	93
  3935                           	
  3936                           l1228:	
  3937  05A4                     ;mcc_generated_files/ivout1.c: 93:     ABECON1bits.EA1DIS1 = 0;
  3938                           	bcf	status, 5	;RP0=0, select bank2
  3939  05A4  1283               	bsf	status, 6	;RP1=1, select bank2
  3940  05A5  1703               	bcf	(268)^0100h,2	;volatile
  3941  05A6  110C               	line	95
  3942                           	
  3943                           l1230:	
  3944  05A7                     ;mcc_generated_files/ivout1.c: 95:     ABECON1bits.EA2DIS1 = 0;
  3945                           	bcf	(268)^0100h,1	;volatile
  3946  05A7  108C               	line	97
  3947                           	
  3948                           l1232:	
  3949  05A8                     ;mcc_generated_files/ivout1.c: 97:     PE1bits.PDRV1EN = 1;
  3950                           	bsf	(263)^0100h,7	;volatile
  3951  05A8  1787               	line	99
  3952                           	
  3953                           l1234:	
  3954  05A9                     ;mcc_generated_files/ivout1.c: 99:  uint8_t pwmStep = 1;
  3955                           	bcf	status, 5	;RP0=0, select bank0
  3956  05A9  1283               	bcf	status, 6	;RP1=0, select bank0
  3957  05AA  1303               	clrf	(IVOUT1_SetOutput@pwmStep)
  3958  05AB  01A4               	incf	(IVOUT1_SetOutput@pwmStep),f
  3959  05AC  0AA4               	line	100
  3960                           	
  3961                           l1236:	
  3962  05AD                     ;mcc_generated_files/ivout1.c: 100:     if (PWM1RL < 0x14)
  3963                           	movlw	low(014h)
  3964  05AD  3014               	subwf	(23),w	;volatile
  3965  05AE  0217               	skipnc
  3966  05AF  1803               	goto	u381
  3967  05B0  2DB2               	goto	u380
  3968  05B1  2DB3               u381:
  3969  05B2                     	goto	l1248
  3970  05B2  2DF1               u380:
  3971  05B3                     	line	103
  3972                           	
  3973                           l1238:	
  3974  05B3                     ;mcc_generated_files/ivout1.c: 101:     {;mcc_generated_files/ivout1.c: 103:         uin
                                 t8_t firstStep = (uint8_t)((0x14 - PWM1RL) % pwmStep);
  3975                           	movf	(IVOUT1_SetOutput@pwmStep),w
  3976  05B3  0824               	movwf	(??_IVOUT1_SetOutput+0)+0
  3977  05B4  00F7               	clrf	(??_IVOUT1_SetOutput+0)+0+1
  3978  05B5  01F8               	movf	0+(??_IVOUT1_SetOutput+0)+0,w
  3979  05B6  0877               	movwf	(___awmod@divisor)
  3980  05B7  00F0               	movf	1+(??_IVOUT1_SetOutput+0)+0,w
  3981  05B8  0878               	movwf	(___awmod@divisor+1)
  3982  05B9  00F1               	movf	(23),w	;volatile
  3983  05BA  0817               	movwf	(??_IVOUT1_SetOutput+2)+0
  3984  05BB  00F9               	clrf	(??_IVOUT1_SetOutput+2)+0+1
  3985  05BC  01FA               	comf	(??_IVOUT1_SetOutput+2)+0,f
  3986  05BD  09F9               	comf	(??_IVOUT1_SetOutput+2)+1,f
  3987  05BE  09FA               	incf	(??_IVOUT1_SetOutput+2)+0,f
  3988  05BF  0AF9               	skipnz
  3989  05C0  1903               	incf	(??_IVOUT1_SetOutput+2)+1,f
  3990  05C1  0AFA               	movf	0+(??_IVOUT1_SetOutput+2)+0,w
  3991  05C2  0879               	addlw	low(014h)
  3992  05C3  3E14               	movwf	(___awmod@dividend)
  3993  05C4  00F2               	movf	1+(??_IVOUT1_SetOutput+2)+0,w
  3994  05C5  087A               	skipnc
  3995  05C6  1803               	addlw	1
  3996  05C7  3E01               	addlw	high(014h)
  3997  05C8  3E00               	movwf	1+(___awmod@dividend)
  3998  05C9  00F3               	fcall	___awmod
  3999  05CA  120A  118A  2491  120A  118A  	movf	(0+(?___awmod)),w
  4000  05CF  0870               	movwf	(??_IVOUT1_SetOutput+4)+0
  4001  05D0  00FB               	movf	(??_IVOUT1_SetOutput+4)+0,w
  4002  05D1  087B               	bcf	status, 5	;RP0=0, select bank0
  4003  05D2  1283               	bcf	status, 6	;RP1=0, select bank0
  4004  05D3  1303               	movwf	(IVOUT1_SetOutput@firstStep)
  4005  05D4  00A0               	line	104
  4006                           	
  4007                           l1240:	
  4008  05D5                     ;mcc_generated_files/ivout1.c: 104:         PWM1RL += firstStep;
  4009                           	movf	(IVOUT1_SetOutput@firstStep),w	;volatile
  4010  05D5  0820               	movwf	(??_IVOUT1_SetOutput+0)+0
  4011  05D6  00F7               	movf	(??_IVOUT1_SetOutput+0)+0,w
  4012  05D7  0877               	addwf	(23),f	;volatile
  4013  05D8  0797               	line	105
  4014                           ;mcc_generated_files/ivout1.c: 105:         while (PWM1RL != 0x14) {
  4015                           	goto	l1246
  4016  05D9  2DE7               	
  4017                           l133:	
  4018  05DA                     	line	106
  4019                           	
  4020                           l1242:	
  4021  05DA                     ;mcc_generated_files/ivout1.c: 106:             PWM1RL += pwmStep;
  4022                           	movf	(IVOUT1_SetOutput@pwmStep),w	;volatile
  4023  05DA  0824               	movwf	(??_IVOUT1_SetOutput+0)+0
  4024  05DB  00F7               	movf	(??_IVOUT1_SetOutput+0)+0,w
  4025  05DC  0877               	addwf	(23),f	;volatile
  4026  05DD  0797               	line	107
  4027                           	
  4028                           l1244:	
  4029  05DE                     ;mcc_generated_files/ivout1.c: 107:             _delay((unsigned long)((2497)*(8000000/4
                                 000000.0)));
  4030                           	opt asmopt_push
  4031                           opt asmopt_off
  4032                           movlw	7
  4033  05DE  3007               movwf	((??_IVOUT1_SetOutput+0)+0+1),f
  4034  05DF  00F8               	movlw	123
  4035  05E0  307B               movwf	((??_IVOUT1_SetOutput+0)+0),f
  4036  05E1  00F7               	u597:
  4037  05E2                     decfsz	((??_IVOUT1_SetOutput+0)+0),f
  4038  05E2  0BF7               	goto	u597
  4039  05E3  2DE2               	decfsz	((??_IVOUT1_SetOutput+0)+0+1),f
  4040  05E4  0BF8               	goto	u597
  4041  05E5  2DE2               opt asmopt_pop
  4042                           
  4043                           	goto	l1246
  4044  05E6  2DE7               	line	108
  4045                           ;mcc_generated_files/ivout1.c: 108:         }
  4046                           	
  4047                           l132:	
  4048  05E7                     	line	105
  4049                           	
  4050                           l1246:	
  4051  05E7                     ;mcc_generated_files/ivout1.c: 105:         while (PWM1RL != 0x14) {
  4052                           		movlw	20
  4053  05E7  3014               	bcf	status, 5	;RP0=0, select bank0
  4054  05E8  1283               	bcf	status, 6	;RP1=0, select bank0
  4055  05E9  1303               	xorwf	((23)),w	;volatile
  4056  05EA  0617               	btfss	status,2
  4057  05EB  1D03               	goto	u391
  4058  05EC  2DEE               	goto	u390
  4059  05ED  2DEF               u391:
  4060  05EE                     	goto	l1242
  4061  05EE  2DDA               u390:
  4062  05EF                     	goto	l1248
  4063  05EF  2DF1               	
  4064                           l134:	
  4065  05F0                     	goto	l1248
  4066  05F0  2DF1               	line	109
  4067                           ;mcc_generated_files/ivout1.c: 109:     }
  4068                           	
  4069                           l131:	
  4070  05F1                     	line	110
  4071                           	
  4072                           l1248:	
  4073  05F1                     ;mcc_generated_files/ivout1.c: 110:     if (PWM1RL > 0x14)
  4074                           	movlw	low(015h)
  4075  05F1  3015               	subwf	(23),w	;volatile
  4076  05F2  0217               	skipc
  4077  05F3  1C03               	goto	u401
  4078  05F4  2DF6               	goto	u400
  4079  05F5  2DF7               u401:
  4080  05F6                     	goto	l1260
  4081  05F6  2E28               u400:
  4082  05F7                     	line	113
  4083                           	
  4084                           l1250:	
  4085  05F7                     ;mcc_generated_files/ivout1.c: 111:     {;mcc_generated_files/ivout1.c: 113:         uin
                                 t8_t firstStep = (uint8_t)((PWM1RL - 0x14) % pwmStep);
  4086                           	movf	(IVOUT1_SetOutput@pwmStep),w
  4087  05F7  0824               	movwf	(??_IVOUT1_SetOutput+0)+0
  4088  05F8  00F7               	clrf	(??_IVOUT1_SetOutput+0)+0+1
  4089  05F9  01F8               	movf	0+(??_IVOUT1_SetOutput+0)+0,w
  4090  05FA  0877               	movwf	(___awmod@divisor)
  4091  05FB  00F0               	movf	1+(??_IVOUT1_SetOutput+0)+0,w
  4092  05FC  0878               	movwf	(___awmod@divisor+1)
  4093  05FD  00F1               	movf	(23),w	;volatile
  4094  05FE  0817               	addlw	low(-20)
  4095  05FF  3EEC               	movwf	(___awmod@dividend)
  4096  0600  00F2               	movlw	high(-20)
  4097  0601  30FF               	skipnc
  4098  0602  1803               	movlw	(high(-20)+1)&0ffh
  4099  0603  3000               	movwf	((___awmod@dividend))+1
  4100  0604  00F3               	fcall	___awmod
  4101  0605  120A  118A  2491  120A  118A  	movf	(0+(?___awmod)),w
  4102  060A  0870               	movwf	(??_IVOUT1_SetOutput+2)+0
  4103  060B  00F9               	movf	(??_IVOUT1_SetOutput+2)+0,w
  4104  060C  0879               	bcf	status, 5	;RP0=0, select bank0
  4105  060D  1283               	bcf	status, 6	;RP1=0, select bank0
  4106  060E  1303               	movwf	(IVOUT1_SetOutput@firstStep_258)
  4107  060F  00A1               	line	114
  4108                           	
  4109                           l1252:	
  4110  0610                     ;mcc_generated_files/ivout1.c: 114:         PWM1RL -= firstStep;
  4111                           	movf	(IVOUT1_SetOutput@firstStep_258),w	;volatile
  4112  0610  0821               	subwf	(23),f	;volatile
  4113  0611  0297               	line	115
  4114                           ;mcc_generated_files/ivout1.c: 115:         while (PWM1RL != 0x14) {
  4115                           	goto	l1258
  4116  0612  2E1E               	
  4117                           l137:	
  4118  0613                     	line	116
  4119                           	
  4120                           l1254:	
  4121  0613                     ;mcc_generated_files/ivout1.c: 116:             PWM1RL -= pwmStep;
  4122                           	movf	(IVOUT1_SetOutput@pwmStep),w	;volatile
  4123  0613  0824               	subwf	(23),f	;volatile
  4124  0614  0297               	line	117
  4125                           	
  4126                           l1256:	
  4127  0615                     ;mcc_generated_files/ivout1.c: 117:             _delay((unsigned long)((2497)*(8000000/4
                                 000000.0)));
  4128                           	opt asmopt_push
  4129                           opt asmopt_off
  4130                           movlw	7
  4131  0615  3007               movwf	((??_IVOUT1_SetOutput+0)+0+1),f
  4132  0616  00F8               	movlw	123
  4133  0617  307B               movwf	((??_IVOUT1_SetOutput+0)+0),f
  4134  0618  00F7               	u607:
  4135  0619                     decfsz	((??_IVOUT1_SetOutput+0)+0),f
  4136  0619  0BF7               	goto	u607
  4137  061A  2E19               	decfsz	((??_IVOUT1_SetOutput+0)+0+1),f
  4138  061B  0BF8               	goto	u607
  4139  061C  2E19               opt asmopt_pop
  4140                           
  4141                           	goto	l1258
  4142  061D  2E1E               	line	118
  4143                           ;mcc_generated_files/ivout1.c: 118:         }
  4144                           	
  4145                           l136:	
  4146  061E                     	line	115
  4147                           	
  4148                           l1258:	
  4149  061E                     ;mcc_generated_files/ivout1.c: 115:         while (PWM1RL != 0x14) {
  4150                           		movlw	20
  4151  061E  3014               	bcf	status, 5	;RP0=0, select bank0
  4152  061F  1283               	bcf	status, 6	;RP1=0, select bank0
  4153  0620  1303               	xorwf	((23)),w	;volatile
  4154  0621  0617               	btfss	status,2
  4155  0622  1D03               	goto	u411
  4156  0623  2E25               	goto	u410
  4157  0624  2E26               u411:
  4158  0625                     	goto	l1254
  4159  0625  2E13               u410:
  4160  0626                     	goto	l1260
  4161  0626  2E28               	
  4162                           l138:	
  4163  0627                     	goto	l1260
  4164  0627  2E28               	line	119
  4165                           ;mcc_generated_files/ivout1.c: 119:     }
  4166                           	
  4167                           l135:	
  4168  0628                     	line	122
  4169                           	
  4170                           l1260:	
  4171  0628                     ;mcc_generated_files/ivout1.c: 122:  CREFCON1 = 0x32;
  4172                           	movlw	low(032h)
  4173  0628  3032               	bsf	status, 5	;RP0=1, select bank1
  4174  0629  1683               	bcf	status, 6	;RP1=0, select bank1
  4175  062A  1303               	movwf	(143)^080h	;volatile
  4176  062B  008F               	line	123
  4177                           	
  4178                           l1262:	
  4179  062C                     ;mcc_generated_files/ivout1.c: 123:     uint8_t outputStep = 1;
  4180                           	bcf	status, 5	;RP0=0, select bank0
  4181  062C  1283               	bcf	status, 6	;RP1=0, select bank0
  4182  062D  1303               	clrf	(IVOUT1_SetOutput@outputStep)
  4183  062E  01A5               	incf	(IVOUT1_SetOutput@outputStep),f
  4184  062F  0AA5               	line	124
  4185                           ;mcc_generated_files/ivout1.c: 124:     if (VREFCON1 < outputTarget)
  4186                           	movf	(IVOUT1_SetOutput@outputTarget),w
  4187  0630  0826               	bsf	status, 5	;RP0=1, select bank1
  4188  0631  1683               	bcf	status, 6	;RP1=0, select bank1
  4189  0632  1303               	subwf	(145)^080h,w	;volatile
  4190  0633  0211               	skipnc
  4191  0634  1803               	goto	u421
  4192  0635  2E37               	goto	u420
  4193  0636  2E38               u421:
  4194  0637                     	goto	l1274
  4195  0637  2E7E               u420:
  4196  0638                     	line	127
  4197                           	
  4198                           l1264:	
  4199  0638                     ;mcc_generated_files/ivout1.c: 125:     {;mcc_generated_files/ivout1.c: 127:         uin
                                 t8_t firstStep = (uint8_t)((outputTarget - VREFCON1) % outputStep);
  4200                           	bcf	status, 5	;RP0=0, select bank0
  4201  0638  1283               	bcf	status, 6	;RP1=0, select bank0
  4202  0639  1303               	movf	(IVOUT1_SetOutput@outputStep),w
  4203  063A  0825               	movwf	(??_IVOUT1_SetOutput+0)+0
  4204  063B  00F7               	clrf	(??_IVOUT1_SetOutput+0)+0+1
  4205  063C  01F8               	movf	0+(??_IVOUT1_SetOutput+0)+0,w
  4206  063D  0877               	movwf	(___awmod@divisor)
  4207  063E  00F0               	movf	1+(??_IVOUT1_SetOutput+0)+0,w
  4208  063F  0878               	movwf	(___awmod@divisor+1)
  4209  0640  00F1               	bsf	status, 5	;RP0=1, select bank1
  4210  0641  1683               	bcf	status, 6	;RP1=0, select bank1
  4211  0642  1303               	movf	(145)^080h,w	;volatile
  4212  0643  0811               	movwf	(??_IVOUT1_SetOutput+2)+0
  4213  0644  00F9               	clrf	(??_IVOUT1_SetOutput+2)+0+1
  4214  0645  01FA               	comf	(??_IVOUT1_SetOutput+2)+0,f
  4215  0646  09F9               	comf	(??_IVOUT1_SetOutput+2)+1,f
  4216  0647  09FA               	incf	(??_IVOUT1_SetOutput+2)+0,f
  4217  0648  0AF9               	skipnz
  4218  0649  1903               	incf	(??_IVOUT1_SetOutput+2)+1,f
  4219  064A  0AFA               	bcf	status, 5	;RP0=0, select bank0
  4220  064B  1283               	bcf	status, 6	;RP1=0, select bank0
  4221  064C  1303               	movf	(IVOUT1_SetOutput@outputTarget),w
  4222  064D  0826               	addwf	0+(??_IVOUT1_SetOutput+2)+0,w
  4223  064E  0779               	movwf	(___awmod@dividend)
  4224  064F  00F2               	movf	1+(??_IVOUT1_SetOutput+2)+0,w
  4225  0650  087A               	skipnc
  4226  0651  1803               	incf	1+(??_IVOUT1_SetOutput+2)+0,w
  4227  0652  0A7A               	movwf	((___awmod@dividend))+1
  4228  0653  00F3               	fcall	___awmod
  4229  0654  120A  118A  2491  120A  118A  	movf	(0+(?___awmod)),w
  4230  0659  0870               	movwf	(??_IVOUT1_SetOutput+4)+0
  4231  065A  00FB               	movf	(??_IVOUT1_SetOutput+4)+0,w
  4232  065B  087B               	bcf	status, 5	;RP0=0, select bank0
  4233  065C  1283               	bcf	status, 6	;RP1=0, select bank0
  4234  065D  1303               	movwf	(IVOUT1_SetOutput@firstStep_260)
  4235  065E  00A2               	line	128
  4236                           	
  4237                           l1266:	
  4238  065F                     ;mcc_generated_files/ivout1.c: 128:         VREFCON1 += firstStep;
  4239                           	movf	(IVOUT1_SetOutput@firstStep_260),w	;volatile
  4240  065F  0822               	movwf	(??_IVOUT1_SetOutput+0)+0
  4241  0660  00F7               	movf	(??_IVOUT1_SetOutput+0)+0,w
  4242  0661  0877               	bsf	status, 5	;RP0=1, select bank1
  4243  0662  1683               	bcf	status, 6	;RP1=0, select bank1
  4244  0663  1303               	addwf	(145)^080h,f	;volatile
  4245  0664  0791               	line	129
  4246                           ;mcc_generated_files/ivout1.c: 129:         while (VREFCON1 != outputTarget) {
  4247                           	goto	l1272
  4248  0665  2E72               	
  4249                           l141:	
  4250  0666                     	line	130
  4251                           	
  4252                           l1268:	
  4253  0666                     ;mcc_generated_files/ivout1.c: 130:             VREFCON1 += outputStep;
  4254                           	bcf	status, 5	;RP0=0, select bank0
  4255  0666  1283               	movf	(IVOUT1_SetOutput@outputStep),w	;volatile
  4256  0667  0825               	movwf	(??_IVOUT1_SetOutput+0)+0
  4257  0668  00F7               	movf	(??_IVOUT1_SetOutput+0)+0,w
  4258  0669  0877               	bsf	status, 5	;RP0=1, select bank1
  4259  066A  1683               	bcf	status, 6	;RP1=0, select bank1
  4260  066B  1303               	addwf	(145)^080h,f	;volatile
  4261  066C  0791               	line	131
  4262                           	
  4263                           l1270:	
  4264  066D                     ;mcc_generated_files/ivout1.c: 131:             _delay((unsigned long)((248)*(8000000/40
                                 00000.0)));
  4265                           	opt asmopt_push
  4266                           opt asmopt_off
  4267                           	movlw	165
  4268  066D  30A5               movwf	((??_IVOUT1_SetOutput+0)+0),f
  4269  066E  00F7               	u617:
  4270  066F                     decfsz	(??_IVOUT1_SetOutput+0)+0,f
  4271  066F  0BF7               	goto	u617
  4272  0670  2E6F               opt asmopt_pop
  4273                           
  4274                           	goto	l1272
  4275  0671  2E72               	line	132
  4276                           ;mcc_generated_files/ivout1.c: 132:         }
  4277                           	
  4278                           l140:	
  4279  0672                     	line	129
  4280                           	
  4281                           l1272:	
  4282  0672                     ;mcc_generated_files/ivout1.c: 129:         while (VREFCON1 != outputTarget) {
  4283                           	bsf	status, 5	;RP0=1, select bank1
  4284  0672  1683               	bcf	status, 6	;RP1=0, select bank1
  4285  0673  1303               	movf	(145)^080h,w	;volatile
  4286  0674  0811               	bcf	status, 5	;RP0=0, select bank0
  4287  0675  1283               	bcf	status, 6	;RP1=0, select bank0
  4288  0676  1303               	xorwf	(IVOUT1_SetOutput@outputTarget),w
  4289  0677  0626               	skipz
  4290  0678  1D03               	goto	u431
  4291  0679  2E7B               	goto	u430
  4292  067A  2E7C               u431:
  4293  067B                     	goto	l1268
  4294  067B  2E66               u430:
  4295  067C                     	goto	l1274
  4296  067C  2E7E               	
  4297                           l142:	
  4298  067D                     	goto	l1274
  4299  067D  2E7E               	line	133
  4300                           ;mcc_generated_files/ivout1.c: 133:     }
  4301                           	
  4302                           l139:	
  4303  067E                     	line	134
  4304                           	
  4305                           l1274:	
  4306  067E                     ;mcc_generated_files/ivout1.c: 134:     if (VREFCON1 > outputTarget)
  4307                           	bsf	status, 5	;RP0=1, select bank1
  4308  067E  1683               	bcf	status, 6	;RP1=0, select bank1
  4309  067F  1303               	movf	(145)^080h,w	;volatile
  4310  0680  0811               	bcf	status, 5	;RP0=0, select bank0
  4311  0681  1283               	bcf	status, 6	;RP1=0, select bank0
  4312  0682  1303               	subwf	(IVOUT1_SetOutput@outputTarget),w
  4313  0683  0226               	skipnc
  4314  0684  1803               	goto	u441
  4315  0685  2E87               	goto	u440
  4316  0686  2E88               u441:
  4317  0687                     	goto	l147
  4318  0687  2EC6               u440:
  4319  0688                     	line	137
  4320                           	
  4321                           l1276:	
  4322  0688                     ;mcc_generated_files/ivout1.c: 135:     {;mcc_generated_files/ivout1.c: 137:         uin
                                 t8_t firstStep = (uint8_t)((VREFCON1 - outputTarget) % outputStep);
  4323                           	movf	(IVOUT1_SetOutput@outputStep),w
  4324  0688  0825               	movwf	(??_IVOUT1_SetOutput+0)+0
  4325  0689  00F7               	clrf	(??_IVOUT1_SetOutput+0)+0+1
  4326  068A  01F8               	movf	0+(??_IVOUT1_SetOutput+0)+0,w
  4327  068B  0877               	movwf	(___awmod@divisor)
  4328  068C  00F0               	movf	1+(??_IVOUT1_SetOutput+0)+0,w
  4329  068D  0878               	movwf	(___awmod@divisor+1)
  4330  068E  00F1               	movf	(IVOUT1_SetOutput@outputTarget),w
  4331  068F  0826               	movwf	(??_IVOUT1_SetOutput+2)+0
  4332  0690  00F9               	clrf	(??_IVOUT1_SetOutput+2)+0+1
  4333  0691  01FA               	comf	(??_IVOUT1_SetOutput+2)+0,f
  4334  0692  09F9               	comf	(??_IVOUT1_SetOutput+2)+1,f
  4335  0693  09FA               	incf	(??_IVOUT1_SetOutput+2)+0,f
  4336  0694  0AF9               	skipnz
  4337  0695  1903               	incf	(??_IVOUT1_SetOutput+2)+1,f
  4338  0696  0AFA               	bsf	status, 5	;RP0=1, select bank1
  4339  0697  1683               	bcf	status, 6	;RP1=0, select bank1
  4340  0698  1303               	movf	(145)^080h,w	;volatile
  4341  0699  0811               	addwf	0+(??_IVOUT1_SetOutput+2)+0,w
  4342  069A  0779               	movwf	(___awmod@dividend)
  4343  069B  00F2               	movf	1+(??_IVOUT1_SetOutput+2)+0,w
  4344  069C  087A               	skipnc
  4345  069D  1803               	incf	1+(??_IVOUT1_SetOutput+2)+0,w
  4346  069E  0A7A               	movwf	((___awmod@dividend))+1
  4347  069F  00F3               	fcall	___awmod
  4348  06A0  120A  118A  2491  120A  118A  	movf	(0+(?___awmod)),w
  4349  06A5  0870               	movwf	(??_IVOUT1_SetOutput+4)+0
  4350  06A6  00FB               	movf	(??_IVOUT1_SetOutput+4)+0,w
  4351  06A7  087B               	bcf	status, 5	;RP0=0, select bank0
  4352  06A8  1283               	bcf	status, 6	;RP1=0, select bank0
  4353  06A9  1303               	movwf	(IVOUT1_SetOutput@firstStep_261)
  4354  06AA  00A3               	line	138
  4355                           	
  4356                           l1278:	
  4357  06AB                     ;mcc_generated_files/ivout1.c: 138:         VREFCON1 -= firstStep;
  4358                           	movf	(IVOUT1_SetOutput@firstStep_261),w	;volatile
  4359  06AB  0823               	bsf	status, 5	;RP0=1, select bank1
  4360  06AC  1683               	bcf	status, 6	;RP1=0, select bank1
  4361  06AD  1303               	subwf	(145)^080h,f	;volatile
  4362  06AE  0291               	line	139
  4363                           ;mcc_generated_files/ivout1.c: 139:         while (VREFCON1 != outputTarget) {
  4364                           	goto	l1284
  4365  06AF  2EBA               	
  4366                           l145:	
  4367  06B0                     	line	140
  4368                           	
  4369                           l1280:	
  4370  06B0                     ;mcc_generated_files/ivout1.c: 140:             VREFCON1 -= outputStep;
  4371                           	bcf	status, 5	;RP0=0, select bank0
  4372  06B0  1283               	movf	(IVOUT1_SetOutput@outputStep),w	;volatile
  4373  06B1  0825               	bsf	status, 5	;RP0=1, select bank1
  4374  06B2  1683               	bcf	status, 6	;RP1=0, select bank1
  4375  06B3  1303               	subwf	(145)^080h,f	;volatile
  4376  06B4  0291               	line	141
  4377                           	
  4378                           l1282:	
  4379  06B5                     ;mcc_generated_files/ivout1.c: 141:             _delay((unsigned long)((248)*(8000000/40
                                 00000.0)));
  4380                           	opt asmopt_push
  4381                           opt asmopt_off
  4382                           	movlw	165
  4383  06B5  30A5               movwf	((??_IVOUT1_SetOutput+0)+0),f
  4384  06B6  00F7               	u627:
  4385  06B7                     decfsz	(??_IVOUT1_SetOutput+0)+0,f
  4386  06B7  0BF7               	goto	u627
  4387  06B8  2EB7               opt asmopt_pop
  4388                           
  4389                           	goto	l1284
  4390  06B9  2EBA               	line	142
  4391                           ;mcc_generated_files/ivout1.c: 142:         }
  4392                           	
  4393                           l144:	
  4394  06BA                     	line	139
  4395                           	
  4396                           l1284:	
  4397  06BA                     ;mcc_generated_files/ivout1.c: 139:         while (VREFCON1 != outputTarget) {
  4398                           	bsf	status, 5	;RP0=1, select bank1
  4399  06BA  1683               	bcf	status, 6	;RP1=0, select bank1
  4400  06BB  1303               	movf	(145)^080h,w	;volatile
  4401  06BC  0811               	bcf	status, 5	;RP0=0, select bank0
  4402  06BD  1283               	bcf	status, 6	;RP1=0, select bank0
  4403  06BE  1303               	xorwf	(IVOUT1_SetOutput@outputTarget),w
  4404  06BF  0626               	skipz
  4405  06C0  1D03               	goto	u451
  4406  06C1  2EC3               	goto	u450
  4407  06C2  2EC4               u451:
  4408  06C3                     	goto	l1280
  4409  06C3  2EB0               u450:
  4410  06C4                     	goto	l147
  4411  06C4  2EC6               	
  4412                           l146:	
  4413  06C5                     	goto	l147
  4414  06C5  2EC6               	line	143
  4415                           ;mcc_generated_files/ivout1.c: 143:     }
  4416                           	
  4417                           l143:	
  4418  06C6                     	line	144
  4419                           	
  4420                           l147:	
  4421  06C6                     	return
  4422  06C6  0008               	opt stack 0
  4423                           GLOBAL	__end_of_IVOUT1_SetOutput
  4424                           	__end_of_IVOUT1_SetOutput:
  4425  06C7                     	signat	_IVOUT1_SetOutput,4217
  4426                           	global	___awmod
  4427                           
  4428 ;; *************** function ___awmod *****************
  4429 ;; Defined at:
  4430 ;;		line 5 in file "C:\Program Files (x86)\Microchip\xc8\v2.00\pic\sources\c90\common\awmod.c"
  4431 ;; Parameters:    Size  Location     Type
  4432 ;;  divisor         2    0[COMMON] int 
  4433 ;;  dividend        2    2[COMMON] int 
  4434 ;; Auto vars:     Size  Location     Type
  4435 ;;  sign            1    6[COMMON] unsigned char 
  4436 ;;  counter         1    5[COMMON] unsigned char 
  4437 ;; Return value:  Size  Location     Type
  4438 ;;                  2    0[COMMON] int 
  4439 ;; Registers used:
  4440 ;;		wreg, status,2, status,0
  4441 ;; Tracked objects:
  4442 ;;		On entry : 0/0
  4443 ;;		On exit  : 0/0
  4444 ;;		Unchanged: 0/0
  4445 ;; Data sizes:     COMMON   BANK0   BANK1   BANK2
  4446 ;;      Params:         4       0       0       0
  4447 ;;      Locals:         2       0       0       0
  4448 ;;      Temps:          1       0       0       0
  4449 ;;      Totals:         7       0       0       0
  4450 ;;Total ram usage:        7 bytes
  4451 ;; Hardware stack levels used:    1
  4452 ;; This function calls:
  4453 ;;		Nothing
  4454 ;; This function is called by:
  4455 ;;		_IVOUT1_SetOutput
  4456 ;;		_IVOUT2_SetOutput
  4457 ;; This function uses a non-reentrant model
  4458 ;;
  4459                           psect	text11,local,class=CODE,delta=2,merge=1,group=1
  4460                           	file	"C:\Program Files (x86)\Microchip\xc8\v2.00\pic\sources\c90\common\awmod.c"
  4461                           	line	5
  4462                           global __ptext11
  4463                           __ptext11:	;psect for function ___awmod
  4464  0491                     psect	text11
  4465                           	file	"C:\Program Files (x86)\Microchip\xc8\v2.00\pic\sources\c90\common\awmod.c"
  4466                           	line	5
  4467                           	global	__size_of___awmod
  4468                           	__size_of___awmod	equ	__end_of___awmod-___awmod
  4469  0063                     	
  4470                           ___awmod:	
  4471  0491                     ;incstack = 0
  4472                           	opt	stack 4
  4473                           ; Regs used in ___awmod: [wreg+status,2+status,0]
  4474                           	line	12
  4475                           	
  4476                           l1076:	
  4477  0491                     	clrf	(___awmod@sign)
  4478  0491  01F6               	line	13
  4479                           	
  4480                           l1078:	
  4481  0492                     	btfss	(___awmod@dividend+1),7
  4482  0492  1FF3               	goto	u281
  4483  0493  2C95               	goto	u280
  4484  0494  2C96               u281:
  4485  0495                     	goto	l1084
  4486  0495  2C9E               u280:
  4487  0496                     	line	14
  4488                           	
  4489                           l1080:	
  4490  0496                     	comf	(___awmod@dividend),f
  4491  0496  09F2               	comf	(___awmod@dividend+1),f
  4492  0497  09F3               	incf	(___awmod@dividend),f
  4493  0498  0AF2               	skipnz
  4494  0499  1903               	incf	(___awmod@dividend+1),f
  4495  049A  0AF3               	line	15
  4496                           	
  4497                           l1082:	
  4498  049B                     	clrf	(___awmod@sign)
  4499  049B  01F6               	incf	(___awmod@sign),f
  4500  049C  0AF6               	goto	l1084
  4501  049D  2C9E               	line	16
  4502                           	
  4503                           l385:	
  4504  049E                     	line	17
  4505                           	
  4506                           l1084:	
  4507  049E                     	btfss	(___awmod@divisor+1),7
  4508  049E  1FF1               	goto	u291
  4509  049F  2CA1               	goto	u290
  4510  04A0  2CA2               u291:
  4511  04A1                     	goto	l1088
  4512  04A1  2CA8               u290:
  4513  04A2                     	line	18
  4514                           	
  4515                           l1086:	
  4516  04A2                     	comf	(___awmod@divisor),f
  4517  04A2  09F0               	comf	(___awmod@divisor+1),f
  4518  04A3  09F1               	incf	(___awmod@divisor),f
  4519  04A4  0AF0               	skipnz
  4520  04A5  1903               	incf	(___awmod@divisor+1),f
  4521  04A6  0AF1               	goto	l1088
  4522  04A7  2CA8               	
  4523                           l386:	
  4524  04A8                     	line	19
  4525                           	
  4526                           l1088:	
  4527  04A8                     	movf	((___awmod@divisor)),w
  4528  04A8  0870               iorwf	((___awmod@divisor+1)),w
  4529  04A9  0471               	btfsc	status,2
  4530  04AA  1903               	goto	u301
  4531  04AB  2CAD               	goto	u300
  4532  04AC  2CAE               u301:
  4533  04AD                     	goto	l1106
  4534  04AD  2CE3               u300:
  4535  04AE                     	line	20
  4536                           	
  4537                           l1090:	
  4538  04AE                     	clrf	(___awmod@counter)
  4539  04AE  01F5               	incf	(___awmod@counter),f
  4540  04AF  0AF5               	line	21
  4541                           	goto	l1096
  4542  04B0  2CBD               	
  4543                           l389:	
  4544  04B1                     	line	22
  4545                           	
  4546                           l1092:	
  4547  04B1                     	movlw	01h
  4548  04B1  3001               	
  4549                           u315:
  4550  04B2                     	clrc
  4551  04B2  1003               	rlf	(___awmod@divisor),f
  4552  04B3  0DF0               	rlf	(___awmod@divisor+1),f
  4553  04B4  0DF1               	addlw	-1
  4554  04B5  3EFF               	skipz
  4555  04B6  1D03               	goto	u315
  4556  04B7  2CB2               	line	23
  4557                           	
  4558                           l1094:	
  4559  04B8                     	movlw	low(01h)
  4560  04B8  3001               	movwf	(??___awmod+0)+0
  4561  04B9  00F4               	movf	(??___awmod+0)+0,w
  4562  04BA  0874               	addwf	(___awmod@counter),f
  4563  04BB  07F5               	goto	l1096
  4564  04BC  2CBD               	line	24
  4565                           	
  4566                           l388:	
  4567  04BD                     	line	21
  4568                           	
  4569                           l1096:	
  4570  04BD                     	btfss	(___awmod@divisor+1),(15)&7
  4571  04BD  1FF1               	goto	u321
  4572  04BE  2CC0               	goto	u320
  4573  04BF  2CC1               u321:
  4574  04C0                     	goto	l1092
  4575  04C0  2CB1               u320:
  4576  04C1                     	goto	l1098
  4577  04C1  2CC3               	
  4578                           l390:	
  4579  04C2                     	goto	l1098
  4580  04C2  2CC3               	line	25
  4581                           	
  4582                           l391:	
  4583  04C3                     	line	26
  4584                           	
  4585                           l1098:	
  4586  04C3                     	movf	(___awmod@divisor+1),w
  4587  04C3  0871               	subwf	(___awmod@dividend+1),w
  4588  04C4  0273               	skipz
  4589  04C5  1D03               	goto	u335
  4590  04C6  2CC9               	movf	(___awmod@divisor),w
  4591  04C7  0870               	subwf	(___awmod@dividend),w
  4592  04C8  0272               u335:
  4593  04C9                     	skipc
  4594  04C9  1C03               	goto	u331
  4595  04CA  2CCC               	goto	u330
  4596  04CB  2CCD               u331:
  4597  04CC                     	goto	l1102
  4598  04CC  2CD4               u330:
  4599  04CD                     	line	27
  4600                           	
  4601                           l1100:	
  4602  04CD                     	movf	(___awmod@divisor),w
  4603  04CD  0870               	subwf	(___awmod@dividend),f
  4604  04CE  02F2               	movf	(___awmod@divisor+1),w
  4605  04CF  0871               	skipc
  4606  04D0  1C03               	decf	(___awmod@dividend+1),f
  4607  04D1  03F3               	subwf	(___awmod@dividend+1),f
  4608  04D2  02F3               	goto	l1102
  4609  04D3  2CD4               	
  4610                           l392:	
  4611  04D4                     	line	28
  4612                           	
  4613                           l1102:	
  4614  04D4                     	movlw	01h
  4615  04D4  3001               	
  4616                           u345:
  4617  04D5                     	clrc
  4618  04D5  1003               	rrf	(___awmod@divisor+1),f
  4619  04D6  0CF1               	rrf	(___awmod@divisor),f
  4620  04D7  0CF0               	addlw	-1
  4621  04D8  3EFF               	skipz
  4622  04D9  1D03               	goto	u345
  4623  04DA  2CD5               	line	29
  4624                           	
  4625                           l1104:	
  4626  04DB                     	movlw	01h
  4627  04DB  3001               	subwf	(___awmod@counter),f
  4628  04DC  02F5               	btfss	status,2
  4629  04DD  1D03               	goto	u351
  4630  04DE  2CE0               	goto	u350
  4631  04DF  2CE1               u351:
  4632  04E0                     	goto	l1098
  4633  04E0  2CC3               u350:
  4634  04E1                     	goto	l1106
  4635  04E1  2CE3               	
  4636                           l393:	
  4637  04E2                     	goto	l1106
  4638  04E2  2CE3               	line	30
  4639                           	
  4640                           l387:	
  4641  04E3                     	line	31
  4642                           	
  4643                           l1106:	
  4644  04E3                     	movf	((___awmod@sign)),w
  4645  04E3  0876               	btfsc	status,2
  4646  04E4  1903               	goto	u361
  4647  04E5  2CE7               	goto	u360
  4648  04E6  2CE8               u361:
  4649  04E7                     	goto	l1110
  4650  04E7  2CEE               u360:
  4651  04E8                     	line	32
  4652                           	
  4653                           l1108:	
  4654  04E8                     	comf	(___awmod@dividend),f
  4655  04E8  09F2               	comf	(___awmod@dividend+1),f
  4656  04E9  09F3               	incf	(___awmod@dividend),f
  4657  04EA  0AF2               	skipnz
  4658  04EB  1903               	incf	(___awmod@dividend+1),f
  4659  04EC  0AF3               	goto	l1110
  4660  04ED  2CEE               	
  4661                           l394:	
  4662  04EE                     	line	33
  4663                           	
  4664                           l1110:	
  4665  04EE                     	movf	(___awmod@dividend+1),w
  4666  04EE  0873               	movwf	(?___awmod+1)
  4667  04EF  00F1               	movf	(___awmod@dividend),w
  4668  04F0  0872               	movwf	(?___awmod)
  4669  04F1  00F0               	goto	l395
  4670  04F2  2CF3               	
  4671                           l1112:	
  4672  04F3                     	line	34
  4673                           	
  4674                           l395:	
  4675  04F3                     	return
  4676  04F3  0008               	opt stack 0
  4677                           GLOBAL	__end_of___awmod
  4678                           	__end_of___awmod:
  4679  04F4                     	signat	___awmod,8314
  4680                           global	___latbits
  4681                           ___latbits	equ	2
  4682  0002                     	global	btemp
  4683                           	btemp set 07Eh
  4684  007E                     
  4685                           	DABS	1,126,2	;btemp
  4686                           	global	wtemp0
  4687                           	wtemp0 set btemp+0
  4688  007E                     	end


Data Sizes:
    Strings     0
    Constant    0
    Data        0
    BSS         6
    Persistent  0
    Stack       0

Auto Spaces:
    Space          Size  Autos    Used
    COMMON           14     14      14
    BANK0            80      7      13
    BANK1            80      0       0
    BANK2            80      0       0

Pointer List with Targets:

    None.

Critical Paths under _main in COMMON

    _SYSTEM_Initialize->_IVOUT1_Initialize
    _SYSTEM_Initialize->_IVOUT2_Initialize
    _SYSTEM_CONFIGURATION_Initialize->_init_Calibration
    _IVOUT2_Initialize->_IVOUT2_SetOutput
    _IVOUT2_SetOutput->___awmod
    _IVOUT1_Initialize->_IVOUT1_SetOutput
    _IVOUT1_SetOutput->___awmod

Critical Paths under _main in BANK0

    _IVOUT2_Initialize->_IVOUT2_SetOutput
    _IVOUT1_Initialize->_IVOUT1_SetOutput

Critical Paths under _main in BANK1

    None.

Critical Paths under _main in BANK2

    None.

Call Graph Tables:

 ---------------------------------------------------------------------------------
 (Depth) Function   	        Calls       Base Space   Used Autos Params    Refs
 ---------------------------------------------------------------------------------
 (0) _main                                                 0     0      0    3874
                  _SYSTEM_Initialize
 ---------------------------------------------------------------------------------
 (1) _SYSTEM_Initialize                                    0     0      0    3874
                  _IVOUT1_Initialize
                  _IVOUT2_Initialize
              _OSCILLATOR_Initialize
             _PIN_MANAGER_Initialize
    _SYSTEM_CONFIGURATION_Initialize
                     _VIN_Initialize
 ---------------------------------------------------------------------------------
 (2) _VIN_Initialize                                       2     2      0       0
                                              0 COMMON     2     2      0
 ---------------------------------------------------------------------------------
 (2) _SYSTEM_CONFIGURATION_Initialize                      0     0      0       0
                   _init_Calibration
 ---------------------------------------------------------------------------------
 (3) _init_Calibration                                     2     2      0       0
                                              0 COMMON     2     2      0
 ---------------------------------------------------------------------------------
 (2) _PIN_MANAGER_Initialize                               0     0      0       0
 ---------------------------------------------------------------------------------
 (2) _OSCILLATOR_Initialize                                0     0      0       0
 ---------------------------------------------------------------------------------
 (2) _IVOUT2_Initialize                                    2     2      0    1937
                                             12 COMMON     2     2      0
                   _IVOUT2_SetOutput
 ---------------------------------------------------------------------------------
 (3) _IVOUT2_SetOutput                                    12    12      0    1914
                                              7 COMMON     5     5      0
                                              0 BANK0      7     7      0
                            ___awmod
 ---------------------------------------------------------------------------------
 (2) _IVOUT1_Initialize                                    2     2      0    1937
                                             12 COMMON     2     2      0
                   _IVOUT1_SetOutput
 ---------------------------------------------------------------------------------
 (3) _IVOUT1_SetOutput                                    12    12      0    1914
                                              7 COMMON     5     5      0
                                              0 BANK0      7     7      0
                            ___awmod
 ---------------------------------------------------------------------------------
 (4) ___awmod                                              7     3      4    1512
                                              0 COMMON     7     3      4
 ---------------------------------------------------------------------------------
 Estimated maximum stack depth 4
 ---------------------------------------------------------------------------------

 Call Graph Graphs:

 _main (ROOT)
   _SYSTEM_Initialize
     _IVOUT1_Initialize
       _IVOUT1_SetOutput
         ___awmod
     _IVOUT2_Initialize
       _IVOUT2_SetOutput
         ___awmod
     _OSCILLATOR_Initialize
     _PIN_MANAGER_Initialize
     _SYSTEM_CONFIGURATION_Initialize
       _init_Calibration
     _VIN_Initialize

 Address spaces:
Name               Size   Autos  Total    Cost      Usage
BITCOMMON            E      0       0       0        0.0%
NULL                 0      0       0       0        0.0%
CODE                 0      0       0       0        0.0%
COMMON               E      E       E       1      100.0%
BITSFR0              0      0       0       1        0.0%
SFR0                 0      0       0       1        0.0%
BITSFR1              0      0       0       2        0.0%
SFR1                 0      0       0       2        0.0%
STACK                0      0       0       2        0.0%
BITBANK0            50      0       0       3        0.0%
BANK0               50      7       D       4       16.3%
BITSFR3              0      0       0       4        0.0%
SFR3                 0      0       0       4        0.0%
BITBANK1            50      0       0       5        0.0%
BITSFR2              0      0       0       5        0.0%
SFR2                 0      0       0       5        0.0%
BANK1               50      0       0       6        0.0%
BANK2               50      0       0       7        0.0%
ABS                  0      0      1B       8        0.0%
DATA                 0      0      1B       9        0.0%
BITBANK2            50      0       0      10        0.0%


Microchip Technology PIC Macro Assembler V2.00 build -1524193055 
Symbol Table                                                                                   Thu May 30 15:36:54 2019

               __end_of_IVOUT2_Initialize 0491                        ??_IVOUT2_SetOutput 0077  
                             __CFG_CP$OFF 0000                                        l51 059D  
                                      l80 0443                                        l83 03E1  
                                      l86 03F4                                       l103 0408  
                                     l200 078F                                       l201 07A8  
                                     l202 07F3                                       l131 05F1  
                                     l203 07E7                                       l140 0672  
                                     l132 05E7                                       l204 07DB  
                                     l141 0666                                       l133 05DA  
                                     l205 07F2                                       l142 067D  
                                     l134 05F0                                       l206 07F3  
                                     l222 041D                                       l143 06C6  
                                     l135 0628                                       l223 0412  
                                     l144 06BA                                       l136 061E  
                                     l128 0469                                       l224 0424  
                                     l160 03E8                                       l145 06B0  
                                     l137 0613                                       l225 0424  
                                     l146 06C5                                       l138 0627  
                                     l147 06C6                                       l139 067E  
                                     l157 03E7                                       l190 071A  
                                     l158 03E7                                       l191 0710  
                                     l159 03E8                                       l192 0703  
                                     l193 0719                                       l194 0751  
                                     l195 0747                                       l187 0490  
                                     l196 073C                                       l197 0750  
                                     l390 04C2                                       l198 07A9  
                                     l391 04C3                                       l199 079D  
                                     l392 04D4                                       l393 04E2  
                                     l385 049E                                       l394 04EE  
                                     l386 04A8                                       l395 04F3  
                                     l387 04E3                                       l388 04BD  
                                     l389 04B1                                       l990 03FD  
                                     l992 03FF                                       l994 0403  
                                     l986 03F5                                       l996 0405  
                                     l988 03F9                                       _PE1 0107  
                                     u300 04AE                                       u301 04AD  
                                     u320 04C1                                       u400 05F7  
                                     u321 04C0                                       u401 05F6  
                                     u330 04CD                                       u410 0626  
                                     u331 04CC                                       u315 04B2  
                                     u411 0625                                       u420 0638  
                                     u500 0761                                       u421 0637  
                                     u501 0760                                       u350 04E1  
                                     u430 067C                                       u510 07A7  
                                     u270 0423                                       _PR2 0011  
                                     u351 04E0                                       u335 04C9  
                                     u431 067B                                       u511 07A6  
                                     u271 0422                                       u360 04E8  
                                     u280 0496                                       u440 0688  
                                     u520 07B3                                       u361 04E7  
                                     u345 04D5                                       u281 0495  
                                     u441 0687                                       u521 07B2  
                                     u290 04A2                                       u450 06C4  
                                     u530 07F1                                       u291 04A1  
                                     u451 06C3                                       u531 07F0  
                                     u380 05B3                                       u460 06DC  
                                     u381 05B2                                       u461 06DB  
                                     u390 05EF                                       u470 0718  
                                     u607 0619                                       u391 05EE  
                                     u471 0717                                       u375 0526  
                                     u480 0720                                       u617 066F  
                                     u481 071F                                       u490 074F  
                                     u627 06B7                                       u491 074E  
                                     u547 0417                                       u557 070B  
                                     u567 0742                                       u577 0798  
                                     u587 07E2                                       u597 05E2  
                            ___awmod@sign 0076                                      l1010 03E0  
                                    l1100 04CD                                      l1004 03DA  
                                    l1012 0409                                      l1110 04EE  
                                    l1102 04D4                                      l1006 03DD  
                                    l1014 0413                                      l1112 04F3  
                                    l1104 04DB                                      l1008 03DF  
                                    l1200 056F                                      l1120 04FC  
                                    l1016 041D                                      l1106 04E3  
                                    l1210 0578                                      l1202 0570  
                                    l1130 0511                                      l1122 04FD  
                                    l1114 04F4                                      l1108 04E8  
                                    l1300 06FE                                      l1220 058D  
                                    l1212 0579                                      l1204 0571  
                                    l1140 051E                                      l1132 0512  
                                    l1124 0506                                      l1116 04F7  
                                    l1230 05A7                                      l1310 0720  
                                    l1302 0703                                      l1222 058E  
                                    l1214 057A                                      l1206 0575  
                                    l1150 0538                                      l1142 0523  
                                    l1134 0513                                      l1126 0507  
                                    l1118 04FB                                      l1080 0496  
                                    l1240 05D5                                      l1232 05A8  
                                    l1312 0739                                      l1320 0751  
                                    l1304 0707                                      l1224 058F  
                                    l1216 0588                                      l1208 0577  
                                    l1160 054B                                      l1152 0539  
                                    l1144 052E                                      l1136 051C  
                                    l1128 0508                                      l1400 03E2  
                                    l1090 04AE                                      l1082 049B  
                                    l1250 05F7                                      l1242 05DA  
                                    l1234 05A9                                      l1226 05A1  
                                    l1330 0796                                      l1322 0755  
                                    l1314 073C                                      l1306 0710  
                                    l1218 058C                                      l1170 0554  
                                    l1162 054C                                      l1154 053A  
                                    l1146 0533                                      l1138 051D  
                                    l1092 04B1                                      l1084 049E  
                                    l1076 0491                                      l1252 0610  
                                    l1260 0628                                      l1244 05DE  
                                    l1236 05AD                                      l1228 05A4  
                                    l1340 07DB                                      l1332 079D  
                                    l1324 0761                                      l1316 073E  
                                    l1308 071A                                      l1180 055D  
                                    l1172 0555                                      l1164 054D  
                                    l1156 0546                                      l1148 0537  
                                    l1094 04B8                                      l1086 04A2  
                                    l1078 0492                                      l1270 066D  
                                    l1262 062C                                      l1254 0613  
                                    l1246 05E7                                      l1238 05B3  
                                    l1342 07E0                                      l1326 0788  
                                    l1334 07A9                                      l1318 0747  
                                    l1190 0566                                      l1182 055E  
                                    l1174 0556                                      l1166 0551  
                                    l1158 054A                                      l1350 03F3  
                                    l1096 04BD                                      l1088 04A8  
                                    l1280 06B0                                      l1272 0672  
                                    l1264 0638                                      l1256 0615  
                                    l1248 05F1                                      l1344 07E7  
                                    l1336 07B3                                      l1328 078F  
                                    l1360 0479                                      l1352 046A  
                                    l1192 0567                                      l1184 055F  
                                    l1176 055A                                      l1168 0553  
                                    l1098 04C3                                      l1282 06B5  
                                    l1266 065F                                      l1274 067E  
                                    l1258 061E                                      l1338 07D6  
                                    l1290 06D0                                      l1370 0482  
                                    l1362 047A                                      l1354 0474  
                                    l1194 0568                                      l1186 0563  
                                    l1178 055C                                      l1346 03EB  
                                    l1284 06BA                                      l1276 0688  
                                    l1268 0666                                      l1380 044F  
                                    l1292 06D1                                      l1372 0486  
                                    l1364 047B                                      l1356 0475  
                                    l1196 056C                                      l1188 0565  
                                    l1348 03F0                                      l1278 06AB  
                                    l1390 0458                                      l1382 0450  
                                    l1294 06D2                                      l1286 06CA  
                                    l1374 048A                                      l1366 047E  
                                    l1358 0476                                      l1198 056E  
                                    l1392 045B                                      l1384 0453  
                                    l1376 0444                                      l1296 06D6  
                                    l1288 06CD                                      l1368 0481  
                                    l1394 045F                                      l1386 0454  
                                    l1378 044E                                      l1298 06DC  
                                    l1396 0463                                      l1388 0455  
                                    l1398 0425                                      _ADBT 019A  
                                    _TANA 002B                                      _TMR2 000F  
                            __CFG_WRT$OFF 0000                                      _main 03E2  
                                    btemp 007E                             __CFG_BOREN$ON 0000  
 __end_of_SYSTEM_CONFIGURATION_Initialize 03F5  __size_of_SYSTEM_CONFIGURATION_Initialize 000A  
       ??_SYSTEM_CONFIGURATION_Initialize 0072          ?_SYSTEM_CONFIGURATION_Initialize 0070  
         _SYSTEM_CONFIGURATION_Initialize 03EB                                      start 0000  
                           __CFG_MCLRE$ON 0000            __size_of_OSCILLATOR_Initialize 0008  
           __end_of_OSCILLATOR_Initialize 03E2                                     ?_main 0070  
                           __CFG_WDTE$OFF 0000                           __end_of___awmod 04F4  
                                   _GAIN1 0029                                     _GAIN2 0027  
                                   _T2CON 0010                                     _PMDAT 0194  
                                   _TTCAL 009B                                     _VRCAL 019D  
              __size_of_IVOUT1_Initialize 0026                            _VIN_Initialize 0409  
                                   status 0003                                     wtemp0 007E  
            IVOUT2_SetOutput@outputTarget 0026                           __initialization 07F4  
              __size_of_IVOUT2_Initialize 0027                              __end_of_main 03EB  
                                  ??_main 007E                    __end_of_VIN_Initialize 0425  
                                  _EACAL1 019A                                    _EACAL2 0196  
                                  _GMCAL1 0196                                    _GMCAL2 0197  
                                  _PDSCAL 019C                                    _PMADRH 0193  
                                  _PMADRL 0192                                    _PMDATH 0195  
                                  _PMDATL 0194                                    _OSCCAL 019E  
                                  _PWM1RL 0017                                    _PWM2RL 0015  
                                  _VINCON 008E                                    _WPUGPA 0105  
                                  _WPUGPB 0106                            __CFG_PWRTE$OFF 0000  
                               ??___awmod 0074                           ___awmod@divisor 0070  
                         ___awmod@counter 0075                           ?_VIN_Initialize 0070  
                       ?_init_Calibration 0070                        ??_init_Calibration 0070  
                       _SYSTEM_Initialize 0425                   __end_of__initialization 07FC  
                      ?_SYSTEM_Initialize 0070                            __pcstackCOMMON 0070  
                     ??_SYSTEM_Initialize 007E                              _ICLEBCONbits 009F  
               __size_of_IVOUT1_SetOutput 0129                            _OPTION_REGbits 0081  
               __size_of_IVOUT2_SetOutput 012D                   IVOUT2_Initialize@target 007D  
               __end_of_SYSTEM_Initialize 0444                                __pbssBANK0 0027  
                              __pmaintext 03E2                                   _ABECON1 010C  
                                 _DACCAL1 0198                                   _DACCAL2 0199  
                                 _DCSCAL1 0198                                   _DCSCAL2 0199  
                                 _PE1bits 0107                                   _PWM2PHL 0013  
                                 _PORTGPA 0005                                   _PORTGPB 0006  
                                 _VINOVLO 008D                                   _TRISGPA 0085  
                                 _TRISGPB 0086                                   _VINUVLO 008C  
                               _DACBGRCAL 019B                                   ___awmod 0491  
               IVOUT1_SetOutput@firstStep 0020                                   __ptext1 0425  
                                 __ptext2 0409                                   __ptext3 03EB  
                                 __ptext4 04F4                                   __ptext5 03F5  
                                 __ptext6 03DA                                   __ptext7 046A  
                                 __ptext8 06C7                                   __ptext9 0444  
                   _OSCILLATOR_Initialize 03DA                                 _T2CONbits 0010  
                        ___awmod@dividend 0072                  ??_PIN_MANAGER_Initialize 0070  
              __size_of_SYSTEM_Initialize 001F                      end_of_initialization 07FC  
           IVOUT1_SetOutput@firstStep_260 0022             IVOUT1_SetOutput@firstStep_261 0023  
           IVOUT1_SetOutput@firstStep_258 0021              IVOUT1_SetOutput@outputTarget 0026  
                 IVOUT1_SetOutput@pwmStep 0024                               _ABECON1bits 010C  
                             _ABECON2bits 010D                          _IVOUT1_SetOutput 059E  
                               _SLPCRCON1 009C                                 _SLPCRCON2 009D  
                        ??_VIN_Initialize 0070                          _IVOUT2_SetOutput 06C7  
               __size_of_init_Calibration 00AA                    ?_OSCILLATOR_Initialize 0070  
                     start_initialization 07F4           __size_of_PIN_MANAGER_Initialize 0014  
                               ___latbits 0002                             __pcstackBANK0 0020  
              IVOUT2_SetOutput@outputStep 0025                               _ICOACONbits 009E  
                  _PIN_MANAGER_Initialize 03F5                                  ?___awmod 0070  
                                _CREFCON1 008F                                  _CREFCON2 0090  
                __end_of_IVOUT1_SetOutput 06C7                  __end_of_IVOUT2_SetOutput 07F4  
                                _LOOPCON1 0099                                  _LOOPCON2 009A  
                        _init_Calibration 04F4                                  _PIR2bits 0008  
                                _VREFCON1 0091                                  _VREFCON2 0092  
               IVOUT2_SetOutput@firstStep 0020             IVOUT2_SetOutput@firstStep_332 0021  
           IVOUT2_SetOutput@firstStep_334 0022             IVOUT2_SetOutput@firstStep_335 0023  
                 IVOUT2_SetOutput@pwmStep 0024                   ??_OSCILLATOR_Initialize 0070  
                        __size_of___awmod 0063                                  __ptext10 059E  
                                __ptext11 0491                             __size_of_main 0009  
                 __size_of_VIN_Initialize 001C                         _IVOUT1_Initialize 0444  
                      ?_IVOUT1_Initialize 0070                                _PMCON1bits 0190  
                 ?_PIN_MANAGER_Initialize 0070                       ??_IVOUT1_Initialize 007C  
                       _IVOUT2_Initialize 046A                        ?_IVOUT2_Initialize 0070  
                __end_of_init_Calibration 059E                       ??_IVOUT2_Initialize 007C  
               __end_of_IVOUT1_Initialize 046A                IVOUT1_SetOutput@outputStep 0025  
                 IVOUT1_Initialize@target 007D            __end_of_PIN_MANAGER_Initialize 0409  
                       ?_IVOUT1_SetOutput 0070                        ??_IVOUT1_SetOutput 0077  
                       ?_IVOUT2_SetOutput 0070  
